EXPORTS
??0?$_Complex_base@M@std@@QAE@ABM0@Z=?decorated1@@YGXXZ @1
??0?$_Complex_base@N@std@@QAE@ABN0@Z=?decorated2@@YGXXZ @2
??0?$_Complex_base@O@std@@QAE@ABO0@Z=?decorated3@@YGXXZ @3
??0?$_Mpunct@D@std@@QAE@ABV_Locinfo@1@I_N@Z=?decorated4@@YGXXZ @4
??0?$_Mpunct@D@std@@QAE@I_N@Z=?decorated5@@YGXXZ @5
??0?$_Mpunct@G@std@@QAE@ABV_Locinfo@1@I_N@Z=?decorated6@@YGXXZ @6
??0?$_Mpunct@G@std@@QAE@I_N@Z=?decorated7@@YGXXZ @7
??0?$basic_filebuf@DU?$char_traits@D@std@@@std@@QAE@ABV01@@Z=?decorated8@@YGXXZ @8
??0?$basic_filebuf@DU?$char_traits@D@std@@@std@@QAE@PAU_iobuf@@@Z=?decorated9@@YGXXZ @9
??0?$basic_filebuf@DU?$char_traits@D@std@@@std@@QAE@W4_Uninitialized@1@@Z=?decorated10@@YGXXZ @10
??0?$basic_filebuf@GU?$char_traits@G@std@@@std@@QAE@ABV01@@Z=?decorated11@@YGXXZ @11
??0?$basic_filebuf@GU?$char_traits@G@std@@@std@@QAE@PAU_iobuf@@@Z=?decorated12@@YGXXZ @12
??0?$basic_filebuf@GU?$char_traits@G@std@@@std@@QAE@W4_Uninitialized@1@@Z=?decorated13@@YGXXZ @13
??0?$basic_fstream@DU?$char_traits@D@std@@@std@@QAE@ABV01@@Z=?decorated14@@YGXXZ @14
??0?$basic_fstream@DU?$char_traits@D@std@@@std@@QAE@PBDH@Z=?decorated15@@YGXXZ @15
??0?$basic_fstream@DU?$char_traits@D@std@@@std@@QAE@XZ=?decorated16@@YGXXZ @16
??0?$basic_fstream@GU?$char_traits@G@std@@@std@@QAE@ABV01@@Z=?decorated17@@YGXXZ @17
??0?$basic_fstream@GU?$char_traits@G@std@@@std@@QAE@PBDH@Z=?decorated18@@YGXXZ @18
??0?$basic_fstream@GU?$char_traits@G@std@@@std@@QAE@XZ=?decorated19@@YGXXZ @19
??0?$basic_ifstream@DU?$char_traits@D@std@@@std@@QAE@ABV01@@Z=?decorated20@@YGXXZ @20
??0?$basic_ifstream@DU?$char_traits@D@std@@@std@@QAE@PBDH@Z=?decorated21@@YGXXZ @21
??0?$basic_ifstream@DU?$char_traits@D@std@@@std@@QAE@XZ=?decorated22@@YGXXZ @22
??0?$basic_ifstream@GU?$char_traits@G@std@@@std@@QAE@ABV01@@Z=?decorated23@@YGXXZ @23
??0?$basic_ifstream@GU?$char_traits@G@std@@@std@@QAE@PBDH@Z=?decorated24@@YGXXZ @24
??0?$basic_ifstream@GU?$char_traits@G@std@@@std@@QAE@XZ=?decorated25@@YGXXZ @25
??0?$basic_ios@DU?$char_traits@D@std@@@std@@IAE@XZ=?decorated26@@YGXXZ @26
??0?$basic_ios@DU?$char_traits@D@std@@@std@@QAE@ABV01@@Z=?decorated27@@YGXXZ @27
??0?$basic_ios@DU?$char_traits@D@std@@@std@@QAE@PAV?$basic_streambuf@DU?$char_traits@D@std@@@1@@Z=?decorated28@@YGXXZ @28
??0?$basic_ios@GU?$char_traits@G@std@@@std@@IAE@XZ=?decorated29@@YGXXZ @29
??0?$basic_ios@GU?$char_traits@G@std@@@std@@QAE@ABV01@@Z=?decorated30@@YGXXZ @30
??0?$basic_ios@GU?$char_traits@G@std@@@std@@QAE@PAV?$basic_streambuf@GU?$char_traits@G@std@@@1@@Z=?decorated31@@YGXXZ @31
??0?$basic_iostream@DU?$char_traits@D@std@@@std@@QAE@ABV01@@Z=?decorated32@@YGXXZ @32
??0?$basic_iostream@DU?$char_traits@D@std@@@std@@QAE@PAV?$basic_streambuf@DU?$char_traits@D@std@@@1@@Z=?decorated33@@YGXXZ @33
??0?$basic_iostream@GU?$char_traits@G@std@@@std@@QAE@ABV01@@Z=?decorated34@@YGXXZ @34
??0?$basic_iostream@GU?$char_traits@G@std@@@std@@QAE@PAV?$basic_streambuf@GU?$char_traits@G@std@@@1@@Z=?decorated35@@YGXXZ @35
??0?$basic_istream@DU?$char_traits@D@std@@@std@@QAE@ABV01@@Z=?decorated36@@YGXXZ @36
??0?$basic_istream@DU?$char_traits@D@std@@@std@@QAE@PAV?$basic_streambuf@DU?$char_traits@D@std@@@1@_N@Z=?decorated37@@YGXXZ @37
??0?$basic_istream@DU?$char_traits@D@std@@@std@@QAE@W4_Uninitialized@1@@Z=?decorated38@@YGXXZ @38
??0?$basic_istream@GU?$char_traits@G@std@@@std@@QAE@ABV01@@Z=?decorated39@@YGXXZ @39
??0?$basic_istream@GU?$char_traits@G@std@@@std@@QAE@PAV?$basic_streambuf@GU?$char_traits@G@std@@@1@_N@Z=?decorated40@@YGXXZ @40
??0?$basic_istream@GU?$char_traits@G@std@@@std@@QAE@W4_Uninitialized@1@@Z=?decorated41@@YGXXZ @41
??0?$basic_istringstream@DU?$char_traits@D@std@@V?$allocator@D@2@@std@@QAE@ABV01@@Z=?decorated42@@YGXXZ @42
??0?$basic_istringstream@DU?$char_traits@D@std@@V?$allocator@D@2@@std@@QAE@ABV?$basic_string@DU?$char_traits@D@std@@V?$allocator@D@2@@1@H@Z=?decorated43@@YGXXZ @43
??0?$basic_istringstream@DU?$char_traits@D@std@@V?$allocator@D@2@@std@@QAE@H@Z=?decorated44@@YGXXZ @44
??0?$basic_istringstream@GU?$char_traits@G@std@@V?$allocator@G@2@@std@@QAE@ABV01@@Z=?decorated45@@YGXXZ @45
??0?$basic_istringstream@GU?$char_traits@G@std@@V?$allocator@G@2@@std@@QAE@ABV?$basic_string@GU?$char_traits@G@std@@V?$allocator@G@2@@1@H@Z=?decorated46@@YGXXZ @46
??0?$basic_istringstream@GU?$char_traits@G@std@@V?$allocator@G@2@@std@@QAE@H@Z=?decorated47@@YGXXZ @47
??0?$basic_ofstream@DU?$char_traits@D@std@@@std@@QAE@ABV01@@Z=?decorated48@@YGXXZ @48
??0?$basic_ofstream@DU?$char_traits@D@std@@@std@@QAE@PBDH@Z=?decorated49@@YGXXZ @49
??0?$basic_ofstream@DU?$char_traits@D@std@@@std@@QAE@XZ=?decorated50@@YGXXZ @50
??0?$basic_ofstream@GU?$char_traits@G@std@@@std@@QAE@ABV01@@Z=?decorated51@@YGXXZ @51
??0?$basic_ofstream@GU?$char_traits@G@std@@@std@@QAE@PBDH@Z=?decorated52@@YGXXZ @52
??0?$basic_ofstream@GU?$char_traits@G@std@@@std@@QAE@XZ=?decorated53@@YGXXZ @53
??0?$basic_ostream@DU?$char_traits@D@std@@@std@@QAE@ABV01@@Z=?decorated54@@YGXXZ @54
??0?$basic_ostream@DU?$char_traits@D@std@@@std@@QAE@PAV?$basic_streambuf@DU?$char_traits@D@std@@@1@_N1@Z=?decorated55@@YGXXZ @55
??0?$basic_ostream@DU?$char_traits@D@std@@@std@@QAE@W4_Uninitialized@1@@Z=?decorated56@@YGXXZ @56
??0?$basic_ostream@GU?$char_traits@G@std@@@std@@QAE@ABV01@@Z=?decorated57@@YGXXZ @57
??0?$basic_ostream@GU?$char_traits@G@std@@@std@@QAE@PAV?$basic_streambuf@GU?$char_traits@G@std@@@1@_N1@Z=?decorated58@@YGXXZ @58
??0?$basic_ostream@GU?$char_traits@G@std@@@std@@QAE@W4_Uninitialized@1@@Z=?decorated59@@YGXXZ @59
??0?$basic_ostringstream@DU?$char_traits@D@std@@V?$allocator@D@2@@std@@QAE@ABV01@@Z=?decorated60@@YGXXZ @60
??0?$basic_ostringstream@DU?$char_traits@D@std@@V?$allocator@D@2@@std@@QAE@ABV?$basic_string@DU?$char_traits@D@std@@V?$allocator@D@2@@1@H@Z=?decorated61@@YGXXZ @61
??0?$basic_ostringstream@DU?$char_traits@D@std@@V?$allocator@D@2@@std@@QAE@H@Z=?decorated62@@YGXXZ @62
??0?$basic_ostringstream@GU?$char_traits@G@std@@V?$allocator@G@2@@std@@QAE@ABV01@@Z=?decorated63@@YGXXZ @63
??0?$basic_ostringstream@GU?$char_traits@G@std@@V?$allocator@G@2@@std@@QAE@ABV?$basic_string@GU?$char_traits@G@std@@V?$allocator@G@2@@1@H@Z=?decorated64@@YGXXZ @64
??0?$basic_ostringstream@GU?$char_traits@G@std@@V?$allocator@G@2@@std@@QAE@H@Z=?decorated65@@YGXXZ @65
??0?$basic_streambuf@DU?$char_traits@D@std@@@std@@IAE@W4_Uninitialized@1@@Z=?decorated66@@YGXXZ @66
??0?$basic_streambuf@DU?$char_traits@D@std@@@std@@IAE@XZ=?decorated67@@YGXXZ @67
??0?$basic_streambuf@DU?$char_traits@D@std@@@std@@QAE@ABV01@@Z=?decorated68@@YGXXZ @68
??0?$basic_streambuf@GU?$char_traits@G@std@@@std@@IAE@W4_Uninitialized@1@@Z=?decorated69@@YGXXZ @69
??0?$basic_streambuf@GU?$char_traits@G@std@@@std@@IAE@XZ=?decorated70@@YGXXZ @70
??0?$basic_streambuf@GU?$char_traits@G@std@@@std@@QAE@ABV01@@Z=?decorated71@@YGXXZ @71
??0?$basic_string@DU?$char_traits@D@std@@V?$allocator@D@2@@std@@QAE@ABV01@@Z=?decorated72@@YGXXZ @72
??0?$basic_string@DU?$char_traits@D@std@@V?$allocator@D@2@@std@@QAE@ABV01@IIABV?$allocator@D@1@@Z=?decorated73@@YGXXZ @73
??0?$basic_string@DU?$char_traits@D@std@@V?$allocator@D@2@@std@@QAE@ABV?$allocator@D@1@@Z=?decorated74@@YGXXZ @74
??0?$basic_string@DU?$char_traits@D@std@@V?$allocator@D@2@@std@@QAE@IDABV?$allocator@D@1@@Z=?decorated75@@YGXXZ @75
??0?$basic_string@DU?$char_traits@D@std@@V?$allocator@D@2@@std@@QAE@PBD0ABV?$allocator@D@1@@Z=?decorated76@@YGXXZ @76
??0?$basic_string@DU?$char_traits@D@std@@V?$allocator@D@2@@std@@QAE@PBDABV?$allocator@D@1@@Z=?decorated77@@YGXXZ @77
??0?$basic_string@DU?$char_traits@D@std@@V?$allocator@D@2@@std@@QAE@PBDIABV?$allocator@D@1@@Z=?decorated78@@YGXXZ @78
??0?$basic_string@GU?$char_traits@G@std@@V?$allocator@G@2@@std@@QAE@ABV01@@Z=?decorated79@@YGXXZ @79
??0?$basic_string@GU?$char_traits@G@std@@V?$allocator@G@2@@std@@QAE@ABV01@IIABV?$allocator@G@1@@Z=?decorated80@@YGXXZ @80
??0?$basic_string@GU?$char_traits@G@std@@V?$allocator@G@2@@std@@QAE@ABV?$allocator@G@1@@Z=?decorated81@@YGXXZ @81
??0?$basic_string@GU?$char_traits@G@std@@V?$allocator@G@2@@std@@QAE@IGABV?$allocator@G@1@@Z=?decorated82@@YGXXZ @82
??0?$basic_string@GU?$char_traits@G@std@@V?$allocator@G@2@@std@@QAE@PBG0ABV?$allocator@G@1@@Z=?decorated83@@YGXXZ @83
??0?$basic_string@GU?$char_traits@G@std@@V?$allocator@G@2@@std@@QAE@PBGABV?$allocator@G@1@@Z=?decorated84@@YGXXZ @84
??0?$basic_string@GU?$char_traits@G@std@@V?$allocator@G@2@@std@@QAE@PBGIABV?$allocator@G@1@@Z=?decorated85@@YGXXZ @85
??0?$basic_stringbuf@DU?$char_traits@D@std@@V?$allocator@D@2@@std@@QAE@ABV01@@Z=?decorated86@@YGXXZ @86
??0?$basic_stringbuf@DU?$char_traits@D@std@@V?$allocator@D@2@@std@@QAE@ABV?$basic_string@DU?$char_traits@D@std@@V?$allocator@D@2@@1@H@Z=?decorated87@@YGXXZ @87
??0?$basic_stringbuf@DU?$char_traits@D@std@@V?$allocator@D@2@@std@@QAE@H@Z=?decorated88@@YGXXZ @88
??0?$basic_stringbuf@GU?$char_traits@G@std@@V?$allocator@G@2@@std@@QAE@ABV01@@Z=?decorated89@@YGXXZ @89
??0?$basic_stringbuf@GU?$char_traits@G@std@@V?$allocator@G@2@@std@@QAE@ABV?$basic_string@GU?$char_traits@G@std@@V?$allocator@G@2@@1@H@Z=?decorated90@@YGXXZ @90
??0?$basic_stringbuf@GU?$char_traits@G@std@@V?$allocator@G@2@@std@@QAE@H@Z=?decorated91@@YGXXZ @91
??0?$basic_stringstream@DU?$char_traits@D@std@@V?$allocator@D@2@@std@@QAE@ABV01@@Z=?decorated92@@YGXXZ @92
??0?$basic_stringstream@DU?$char_traits@D@std@@V?$allocator@D@2@@std@@QAE@ABV?$basic_string@DU?$char_traits@D@std@@V?$allocator@D@2@@1@H@Z=?decorated93@@YGXXZ @93
??0?$basic_stringstream@DU?$char_traits@D@std@@V?$allocator@D@2@@std@@QAE@H@Z=?decorated94@@YGXXZ @94
??0?$basic_stringstream@GU?$char_traits@G@std@@V?$allocator@G@2@@std@@QAE@ABV01@@Z=?decorated95@@YGXXZ @95
??0?$basic_stringstream@GU?$char_traits@G@std@@V?$allocator@G@2@@std@@QAE@ABV?$basic_string@GU?$char_traits@G@std@@V?$allocator@G@2@@1@H@Z=?decorated96@@YGXXZ @96
??0?$basic_stringstream@GU?$char_traits@G@std@@V?$allocator@G@2@@std@@QAE@H@Z=?decorated97@@YGXXZ @97
??0?$codecvt@DDH@std@@QAE@ABV_Locinfo@1@I@Z=?decorated98@@YGXXZ @98
??0?$codecvt@DDH@std@@QAE@I@Z=?decorated99@@YGXXZ @99
??0?$codecvt@GDH@std@@QAE@ABV_Locinfo@1@I@Z=?decorated100@@YGXXZ @100
??0?$codecvt@GDH@std@@QAE@I@Z=?decorated101@@YGXXZ @101
??0?$collate@D@std@@QAE@ABV_Locinfo@1@I@Z=?decorated102@@YGXXZ @102
??0?$collate@D@std@@QAE@I@Z=?decorated103@@YGXXZ @103
??0?$collate@G@std@@QAE@ABV_Locinfo@1@I@Z=?decorated104@@YGXXZ @104
??0?$collate@G@std@@QAE@I@Z=?decorated105@@YGXXZ @105
??0?$complex@M@std@@QAE@ABM0@Z=?decorated106@@YGXXZ @106
??0?$complex@M@std@@QAE@ABV?$complex@N@1@@Z=?decorated107@@YGXXZ @107
??0?$complex@M@std@@QAE@ABV?$complex@O@1@@Z=?decorated108@@YGXXZ @108
??0?$complex@N@std@@QAE@ABN0@Z=?decorated109@@YGXXZ @109
??0?$complex@N@std@@QAE@ABV?$complex@M@1@@Z=?decorated110@@YGXXZ @110
??0?$complex@N@std@@QAE@ABV?$complex@O@1@@Z=?decorated111@@YGXXZ @111
??0?$complex@O@std@@QAE@ABO0@Z=?decorated112@@YGXXZ @112
??0?$complex@O@std@@QAE@ABV?$complex@M@1@@Z=?decorated113@@YGXXZ @113
??0?$complex@O@std@@QAE@ABV?$complex@N@1@@Z=?decorated114@@YGXXZ @114
??0?$ctype@D@std@@QAE@ABV_Locinfo@1@I@Z=?decorated115@@YGXXZ @115
??0?$ctype@D@std@@QAE@PBF_NI@Z=?decorated116@@YGXXZ @116
??0?$ctype@G@std@@QAE@ABV_Locinfo@1@I@Z=?decorated117@@YGXXZ @117
??0?$ctype@G@std@@QAE@I@Z=?decorated118@@YGXXZ @118
??0?$messages@D@std@@QAE@ABV_Locinfo@1@I@Z=?decorated119@@YGXXZ @119
??0?$messages@D@std@@QAE@I@Z=?decorated120@@YGXXZ @120
??0?$messages@G@std@@QAE@ABV_Locinfo@1@I@Z=?decorated121@@YGXXZ @121
??0?$messages@G@std@@QAE@I@Z=?decorated122@@YGXXZ @122
??0?$money_get@DV?$istreambuf_iterator@DU?$char_traits@D@std@@@std@@@std@@QAE@ABV_Locinfo@1@I@Z=?decorated123@@YGXXZ @123
??0?$money_get@DV?$istreambuf_iterator@DU?$char_traits@D@std@@@std@@@std@@QAE@I@Z=?decorated124@@YGXXZ @124
??0?$money_get@GV?$istreambuf_iterator@GU?$char_traits@G@std@@@std@@@std@@QAE@ABV_Locinfo@1@I@Z=?decorated125@@YGXXZ @125
??0?$money_get@GV?$istreambuf_iterator@GU?$char_traits@G@std@@@std@@@std@@QAE@I@Z=?decorated126@@YGXXZ @126
??0?$money_put@DV?$ostreambuf_iterator@DU?$char_traits@D@std@@@std@@@std@@QAE@ABV_Locinfo@1@I@Z=?decorated127@@YGXXZ @127
??0?$money_put@DV?$ostreambuf_iterator@DU?$char_traits@D@std@@@std@@@std@@QAE@I@Z=?decorated128@@YGXXZ @128
??0?$money_put@GV?$ostreambuf_iterator@GU?$char_traits@G@std@@@std@@@std@@QAE@ABV_Locinfo@1@I@Z=?decorated129@@YGXXZ @129
??0?$money_put@GV?$ostreambuf_iterator@GU?$char_traits@G@std@@@std@@@std@@QAE@I@Z=?decorated130@@YGXXZ @130
??0?$moneypunct@D$00@std@@QAE@ABV_Locinfo@1@I@Z=?decorated131@@YGXXZ @131
??0?$moneypunct@D$00@std@@QAE@I@Z=?decorated132@@YGXXZ @132
??0?$moneypunct@D$0A@@std@@QAE@ABV_Locinfo@1@I@Z=?decorated133@@YGXXZ @133
??0?$moneypunct@D$0A@@std@@QAE@I@Z=?decorated134@@YGXXZ @134
??0?$moneypunct@G$00@std@@QAE@ABV_Locinfo@1@I@Z=?decorated135@@YGXXZ @135
??0?$moneypunct@G$00@std@@QAE@I@Z=?decorated136@@YGXXZ @136
??0?$moneypunct@G$0A@@std@@QAE@ABV_Locinfo@1@I@Z=?decorated137@@YGXXZ @137
??0?$moneypunct@G$0A@@std@@QAE@I@Z=?decorated138@@YGXXZ @138
??0?$num_get@DV?$istreambuf_iterator@DU?$char_traits@D@std@@@std@@@std@@QAE@ABV_Locinfo@1@I@Z=?decorated139@@YGXXZ @139
??0?$num_get@DV?$istreambuf_iterator@DU?$char_traits@D@std@@@std@@@std@@QAE@I@Z=?decorated140@@YGXXZ @140
??0?$num_get@GV?$istreambuf_iterator@GU?$char_traits@G@std@@@std@@@std@@QAE@ABV_Locinfo@1@I@Z=?decorated141@@YGXXZ @141
??0?$num_get@GV?$istreambuf_iterator@GU?$char_traits@G@std@@@std@@@std@@QAE@I@Z=?decorated142@@YGXXZ @142
??0?$num_put@DV?$ostreambuf_iterator@DU?$char_traits@D@std@@@std@@@std@@QAE@ABV_Locinfo@1@I@Z=?decorated143@@YGXXZ @143
??0?$num_put@DV?$ostreambuf_iterator@DU?$char_traits@D@std@@@std@@@std@@QAE@I@Z=?decorated144@@YGXXZ @144
??0?$num_put@GV?$ostreambuf_iterator@GU?$char_traits@G@std@@@std@@@std@@QAE@ABV_Locinfo@1@I@Z=?decorated145@@YGXXZ @145
??0?$num_put@GV?$ostreambuf_iterator@GU?$char_traits@G@std@@@std@@@std@@QAE@I@Z=?decorated146@@YGXXZ @146
??0?$numpunct@D@std@@QAE@ABV_Locinfo@1@I@Z=?decorated147@@YGXXZ @147
??0?$numpunct@D@std@@QAE@I@Z=?decorated148@@YGXXZ @148
??0?$numpunct@G@std@@QAE@ABV_Locinfo@1@I@Z=?decorated149@@YGXXZ @149
??0?$numpunct@G@std@@QAE@I@Z=?decorated150@@YGXXZ @150
??0?$time_get@DV?$istreambuf_iterator@DU?$char_traits@D@std@@@std@@@std@@QAE@ABV_Locinfo@1@I@Z=?decorated151@@YGXXZ @151
??0?$time_get@DV?$istreambuf_iterator@DU?$char_traits@D@std@@@std@@@std@@QAE@I@Z=?decorated152@@YGXXZ @152
??0?$time_get@GV?$istreambuf_iterator@GU?$char_traits@G@std@@@std@@@std@@QAE@ABV_Locinfo@1@I@Z=?decorated153@@YGXXZ @153
??0?$time_get@GV?$istreambuf_iterator@GU?$char_traits@G@std@@@std@@@std@@QAE@I@Z=?decorated154@@YGXXZ @154
??0?$time_put@DV?$ostreambuf_iterator@DU?$char_traits@D@std@@@std@@@std@@QAE@ABV_Locinfo@1@I@Z=?decorated155@@YGXXZ @155
??0?$time_put@DV?$ostreambuf_iterator@DU?$char_traits@D@std@@@std@@@std@@QAE@I@Z=?decorated156@@YGXXZ @156
??0?$time_put@GV?$ostreambuf_iterator@GU?$char_traits@G@std@@@std@@@std@@QAE@ABV_Locinfo@1@I@Z=?decorated157@@YGXXZ @157
??0?$time_put@GV?$ostreambuf_iterator@GU?$char_traits@G@std@@@std@@@std@@QAE@I@Z=?decorated158@@YGXXZ @158
??0__non_rtti_object@std@@QAE@ABV01@@Z=?decorated167@@YGXXZ @167
??0__non_rtti_object@std@@QAE@PBD@Z=?decorated168@@YGXXZ @168
??0_Locinfo@std@@QAE@ABV01@@Z=?decorated160@@YGXXZ @160
??0_Locinfo@std@@QAE@HPBD@Z=?decorated161@@YGXXZ @161
??0_Locinfo@std@@QAE@PBD@Z=?decorated162@@YGXXZ @162
??0_Lockit@std@@QAE@XZ=?decorated163@@YGXXZ @163
??0_Timevec@std@@QAE@ABV01@@Z=?decorated164@@YGXXZ @164
??0_Timevec@std@@QAE@PAX@Z=?decorated165@@YGXXZ @165
??0_Winit@std@@QAE@XZ=?decorated166@@YGXXZ @166
??0bad_alloc@std@@QAE@ABV01@@Z=?decorated169@@YGXXZ @169
??0bad_alloc@std@@QAE@PBD@Z=?decorated170@@YGXXZ @170
??0bad_cast@std@@QAE@ABV01@@Z=?decorated171@@YGXXZ @171
??0bad_cast@std@@QAE@PBD@Z=?decorated172@@YGXXZ @172
??0bad_exception@std@@QAE@ABV01@@Z=?decorated173@@YGXXZ @173
??0bad_exception@std@@QAE@PBD@Z=?decorated174@@YGXXZ @174
??0bad_typeid@std@@QAE@ABV01@@Z=?decorated175@@YGXXZ @175
??0bad_typeid@std@@QAE@PBD@Z=?decorated176@@YGXXZ @176
??0codecvt_base@std@@QAE@I@Z=?decorated177@@YGXXZ @177
??0ctype_base@std@@QAE@I@Z=?decorated178@@YGXXZ @178
??0domain_error@std@@QAE@ABV01@@Z=?decorated179@@YGXXZ @179
??0domain_error@std@@QAE@ABV?$basic_string@DU?$char_traits@D@std@@V?$allocator@D@2@@1@@Z=?decorated180@@YGXXZ @180
??0facet@locale@std@@IAE@I@Z=?decorated181@@YGXXZ @181
??0Init@ios_base@std@@QAE@XZ=?decorated159@@YGXXZ @159
??0ios_base@std@@IAE@XZ=?decorated182@@YGXXZ @182
??0ios_base@std@@QAE@ABV01@@Z=?decorated183@@YGXXZ @183
??0length_error@std@@QAE@ABV01@@Z=?decorated184@@YGXXZ @184
??0length_error@std@@QAE@ABV?$basic_string@DU?$char_traits@D@std@@V?$allocator@D@2@@1@@Z=?decorated185@@YGXXZ @185
??0locale@std@@AAE@PAV_Locimp@01@@Z=?decorated186@@YGXXZ @186
??0locale@std@@QAE@ABV01@0H@Z=?decorated187@@YGXXZ @187
??0locale@std@@QAE@ABV01@@Z=?decorated188@@YGXXZ @188
??0locale@std@@QAE@ABV01@PBDH@Z=?decorated189@@YGXXZ @189
??0locale@std@@QAE@PBDH@Z=?decorated190@@YGXXZ @190
??0locale@std@@QAE@W4_Uninitialized@1@@Z=?decorated191@@YGXXZ @191
??0locale@std@@QAE@XZ=?decorated192@@YGXXZ @192
??0logic_error@std@@QAE@ABV01@@Z=?decorated193@@YGXXZ @193
??0logic_error@std@@QAE@ABV?$basic_string@DU?$char_traits@D@std@@V?$allocator@D@2@@1@@Z=?decorated194@@YGXXZ @194
??0messages_base@std@@QAE@I@Z=?decorated195@@YGXXZ @195
??0money_base@std@@QAE@I@Z=?decorated196@@YGXXZ @196
??0ostrstream@std@@QAE@PADHH@Z=?decorated197@@YGXXZ @197
??0out_of_range@std@@QAE@ABV01@@Z=?decorated198@@YGXXZ @198
??0out_of_range@std@@QAE@ABV?$basic_string@DU?$char_traits@D@std@@V?$allocator@D@2@@1@@Z=?decorated199@@YGXXZ @199
??0overflow_error@std@@QAE@ABV01@@Z=?decorated200@@YGXXZ @200
??0overflow_error@std@@QAE@ABV?$basic_string@DU?$char_traits@D@std@@V?$allocator@D@2@@1@@Z=?decorated201@@YGXXZ @201
??0range_error@std@@QAE@ABV01@@Z=?decorated202@@YGXXZ @202
??0range_error@std@@QAE@ABV?$basic_string@DU?$char_traits@D@std@@V?$allocator@D@2@@1@@Z=?decorated203@@YGXXZ @203
??0runtime_error@std@@QAE@ABV01@@Z=?decorated204@@YGXXZ @204
??0runtime_error@std@@QAE@ABV?$basic_string@DU?$char_traits@D@std@@V?$allocator@D@2@@1@@Z=?decorated205@@YGXXZ @205
??0strstream@std@@QAE@PADHH@Z=?decorated206@@YGXXZ @206
??0time_base@std@@QAE@I@Z=?decorated207@@YGXXZ @207
??0underflow_error@std@@QAE@ABV01@@Z=?decorated208@@YGXXZ @208
??0underflow_error@std@@QAE@ABV?$basic_string@DU?$char_traits@D@std@@V?$allocator@D@2@@1@@Z=?decorated209@@YGXXZ @209
??1?$_Mpunct@D@std@@UAE@XZ=?decorated210@@YGXXZ @210
??1?$_Mpunct@G@std@@UAE@XZ=?decorated211@@YGXXZ @211
??1?$basic_filebuf@DU?$char_traits@D@std@@@std@@UAE@XZ=?decorated212@@YGXXZ @212
??1?$basic_filebuf@GU?$char_traits@G@std@@@std@@UAE@XZ=?decorated213@@YGXXZ @213
??1?$basic_fstream@DU?$char_traits@D@std@@@std@@UAE@XZ=?decorated214@@YGXXZ @214
??1?$basic_fstream@GU?$char_traits@G@std@@@std@@UAE@XZ=?decorated215@@YGXXZ @215
??1?$basic_ifstream@DU?$char_traits@D@std@@@std@@UAE@XZ=?decorated216@@YGXXZ @216
??1?$basic_ifstream@GU?$char_traits@G@std@@@std@@UAE@XZ=?decorated217@@YGXXZ @217
??1?$basic_ios@DU?$char_traits@D@std@@@std@@UAE@XZ=?decorated218@@YGXXZ @218
??1?$basic_ios@GU?$char_traits@G@std@@@std@@UAE@XZ=?decorated219@@YGXXZ @219
??1?$basic_iostream@DU?$char_traits@D@std@@@std@@UAE@XZ=?decorated220@@YGXXZ @220
??1?$basic_iostream@GU?$char_traits@G@std@@@std@@UAE@XZ=?decorated221@@YGXXZ @221
??1?$basic_istream@DU?$char_traits@D@std@@@std@@UAE@XZ=?decorated222@@YGXXZ @222
??1?$basic_istream@GU?$char_traits@G@std@@@std@@UAE@XZ=?decorated223@@YGXXZ @223
??1?$basic_istringstream@DU?$char_traits@D@std@@V?$allocator@D@2@@std@@UAE@XZ=?decorated224@@YGXXZ @224
??1?$basic_istringstream@GU?$char_traits@G@std@@V?$allocator@G@2@@std@@UAE@XZ=?decorated225@@YGXXZ @225
??1?$basic_ofstream@DU?$char_traits@D@std@@@std@@UAE@XZ=?decorated226@@YGXXZ @226
??1?$basic_ofstream@GU?$char_traits@G@std@@@std@@UAE@XZ=?decorated227@@YGXXZ @227
??1?$basic_ostream@DU?$char_traits@D@std@@@std@@UAE@XZ=?decorated228@@YGXXZ @228
??1?$basic_ostream@GU?$char_traits@G@std@@@std@@UAE@XZ=?decorated229@@YGXXZ @229
??1?$basic_ostringstream@DU?$char_traits@D@std@@V?$allocator@D@2@@std@@UAE@XZ=?decorated230@@YGXXZ @230
??1?$basic_ostringstream@GU?$char_traits@G@std@@V?$allocator@G@2@@std@@UAE@XZ=?decorated231@@YGXXZ @231
??1?$basic_streambuf@DU?$char_traits@D@std@@@std@@UAE@XZ=?decorated232@@YGXXZ @232
??1?$basic_streambuf@GU?$char_traits@G@std@@@std@@UAE@XZ=?decorated233@@YGXXZ @233
??1?$basic_string@DU?$char_traits@D@std@@V?$allocator@D@2@@std@@QAE@XZ=?decorated234@@YGXXZ @234
??1?$basic_string@GU?$char_traits@G@std@@V?$allocator@G@2@@std@@QAE@XZ=?decorated235@@YGXXZ @235
??1?$basic_stringbuf@DU?$char_traits@D@std@@V?$allocator@D@2@@std@@UAE@XZ=?decorated236@@YGXXZ @236
??1?$basic_stringbuf@GU?$char_traits@G@std@@V?$allocator@G@2@@std@@UAE@XZ=?decorated237@@YGXXZ @237
??1?$basic_stringstream@DU?$char_traits@D@std@@V?$allocator@D@2@@std@@UAE@XZ=?decorated238@@YGXXZ @238
??1?$basic_stringstream@GU?$char_traits@G@std@@V?$allocator@G@2@@std@@UAE@XZ=?decorated239@@YGXXZ @239
??1?$codecvt@DDH@std@@UAE@XZ=?decorated240@@YGXXZ @240
??1?$codecvt@GDH@std@@UAE@XZ=?decorated241@@YGXXZ @241
??1?$collate@D@std@@UAE@XZ=?decorated242@@YGXXZ @242
??1?$collate@G@std@@UAE@XZ=?decorated243@@YGXXZ @243
??1?$ctype@D@std@@UAE@XZ=?decorated244@@YGXXZ @244
??1?$ctype@G@std@@UAE@XZ=?decorated245@@YGXXZ @245
??1?$messages@D@std@@UAE@XZ=?decorated246@@YGXXZ @246
??1?$messages@G@std@@UAE@XZ=?decorated247@@YGXXZ @247
??1?$money_get@DV?$istreambuf_iterator@DU?$char_traits@D@std@@@std@@@std@@UAE@XZ=?decorated248@@YGXXZ @248
??1?$money_get@GV?$istreambuf_iterator@GU?$char_traits@G@std@@@std@@@std@@UAE@XZ=?decorated249@@YGXXZ @249
??1?$money_put@DV?$ostreambuf_iterator@DU?$char_traits@D@std@@@std@@@std@@UAE@XZ=?decorated250@@YGXXZ @250
??1?$money_put@GV?$ostreambuf_iterator@GU?$char_traits@G@std@@@std@@@std@@UAE@XZ=?decorated251@@YGXXZ @251
??1?$moneypunct@D$00@std@@UAE@XZ=?decorated252@@YGXXZ @252
??1?$moneypunct@D$0A@@std@@UAE@XZ=?decorated253@@YGXXZ @253
??1?$moneypunct@G$00@std@@UAE@XZ=?decorated254@@YGXXZ @254
??1?$moneypunct@G$0A@@std@@UAE@XZ=?decorated255@@YGXXZ @255
??1?$num_get@DV?$istreambuf_iterator@DU?$char_traits@D@std@@@std@@@std@@UAE@XZ=?decorated256@@YGXXZ @256
??1?$num_get@GV?$istreambuf_iterator@GU?$char_traits@G@std@@@std@@@std@@UAE@XZ=?decorated257@@YGXXZ @257
??1?$num_put@DV?$ostreambuf_iterator@DU?$char_traits@D@std@@@std@@@std@@UAE@XZ=?decorated258@@YGXXZ @258
??1?$num_put@GV?$ostreambuf_iterator@GU?$char_traits@G@std@@@std@@@std@@UAE@XZ=?decorated259@@YGXXZ @259
??1?$numpunct@D@std@@UAE@XZ=?decorated260@@YGXXZ @260
??1?$numpunct@G@std@@UAE@XZ=?decorated261@@YGXXZ @261
??1?$time_get@DV?$istreambuf_iterator@DU?$char_traits@D@std@@@std@@@std@@UAE@XZ=?decorated262@@YGXXZ @262
??1?$time_get@GV?$istreambuf_iterator@GU?$char_traits@G@std@@@std@@@std@@UAE@XZ=?decorated263@@YGXXZ @263
??1?$time_put@DV?$ostreambuf_iterator@DU?$char_traits@D@std@@@std@@@std@@UAE@XZ=?decorated264@@YGXXZ @264
??1?$time_put@GV?$ostreambuf_iterator@GU?$char_traits@G@std@@@std@@@std@@UAE@XZ=?decorated265@@YGXXZ @265
??1__non_rtti_object@std@@UAE@XZ=?decorated271@@YGXXZ @271
??1_Locinfo@std@@QAE@XZ=?decorated267@@YGXXZ @267
??1_Lockit@std@@QAE@XZ=?decorated268@@YGXXZ @268
??1_Timevec@std@@QAE@XZ=?decorated269@@YGXXZ @269
??1_Winit@std@@QAE@XZ=?decorated270@@YGXXZ @270
??1bad_alloc@std@@UAE@XZ=?decorated272@@YGXXZ @272
??1bad_cast@std@@UAE@XZ=?decorated273@@YGXXZ @273
??1bad_exception@std@@UAE@XZ=?decorated274@@YGXXZ @274
??1bad_typeid@std@@UAE@XZ=?decorated275@@YGXXZ @275
??1codecvt_base@std@@UAE@XZ=?decorated276@@YGXXZ @276
??1ctype_base@std@@UAE@XZ=?decorated277@@YGXXZ @277
??1domain_error@std@@UAE@XZ=?decorated278@@YGXXZ @278
??1facet@locale@std@@UAE@XZ=?decorated279@@YGXXZ @279
??1Init@ios_base@std@@QAE@XZ=?decorated266@@YGXXZ @266
??1ios_base@std@@UAE@XZ=?decorated280@@YGXXZ @280
??1istrstream@std@@UAE@XZ=?decorated281@@YGXXZ @281
??1length_error@std@@UAE@XZ=?decorated282@@YGXXZ @282
??1locale@std@@QAE@XZ=?decorated283@@YGXXZ @283
??1logic_error@std@@UAE@XZ=?decorated284@@YGXXZ @284
??1messages_base@std@@UAE@XZ=?decorated285@@YGXXZ @285
??1money_base@std@@UAE@XZ=?decorated286@@YGXXZ @286
??1ostrstream@std@@UAE@XZ=?decorated287@@YGXXZ @287
??1out_of_range@std@@UAE@XZ=?decorated288@@YGXXZ @288
??1overflow_error@std@@UAE@XZ=?decorated289@@YGXXZ @289
??1range_error@std@@UAE@XZ=?decorated290@@YGXXZ @290
??1runtime_error@std@@UAE@XZ=?decorated291@@YGXXZ @291
??1strstream@std@@UAE@XZ=?decorated292@@YGXXZ @292
??1strstreambuf@std@@UAE@XZ=?decorated293@@YGXXZ @293
??1time_base@std@@UAE@XZ=?decorated294@@YGXXZ @294
??1underflow_error@std@@UAE@XZ=?decorated295@@YGXXZ @295
??4?$_Complex_base@M@std@@QAEAAV01@ABV01@@Z=?decorated296@@YGXXZ @296
??4?$_Complex_base@N@std@@QAEAAV01@ABV01@@Z=?decorated297@@YGXXZ @297
??4?$_Complex_base@O@std@@QAEAAV01@ABV01@@Z=?decorated298@@YGXXZ @298
??4?$_Ctr@M@std@@QAEAAV01@ABV01@@Z=?decorated299@@YGXXZ @299
??4?$_Ctr@N@std@@QAEAAV01@ABV01@@Z=?decorated300@@YGXXZ @300
??4?$_Ctr@O@std@@QAEAAV01@ABV01@@Z=?decorated301@@YGXXZ @301
??4?$allocator@X@std@@QAEAAV01@ABV01@@Z=?decorated302@@YGXXZ @302
??4?$basic_filebuf@DU?$char_traits@D@std@@@std@@QAEAAV01@ABV01@@Z=?decorated303@@YGXXZ @303
??4?$basic_filebuf@GU?$char_traits@G@std@@@std@@QAEAAV01@ABV01@@Z=?decorated304@@YGXXZ @304
??4?$basic_fstream@DU?$char_traits@D@std@@@std@@QAEAAV01@ABV01@@Z=?decorated305@@YGXXZ @305
??4?$basic_fstream@GU?$char_traits@G@std@@@std@@QAEAAV01@ABV01@@Z=?decorated306@@YGXXZ @306
??4?$basic_ifstream@DU?$char_traits@D@std@@@std@@QAEAAV01@ABV01@@Z=?decorated307@@YGXXZ @307
??4?$basic_ifstream@GU?$char_traits@G@std@@@std@@QAEAAV01@ABV01@@Z=?decorated308@@YGXXZ @308
??4?$basic_ios@DU?$char_traits@D@std@@@std@@QAEAAV01@ABV01@@Z=?decorated309@@YGXXZ @309
??4?$basic_ios@GU?$char_traits@G@std@@@std@@QAEAAV01@ABV01@@Z=?decorated310@@YGXXZ @310
??4?$basic_iostream@DU?$char_traits@D@std@@@std@@QAEAAV01@ABV01@@Z=?decorated311@@YGXXZ @311
??4?$basic_iostream@GU?$char_traits@G@std@@@std@@QAEAAV01@ABV01@@Z=?decorated312@@YGXXZ @312
??4?$basic_istream@DU?$char_traits@D@std@@@std@@QAEAAV01@ABV01@@Z=?decorated313@@YGXXZ @313
??4?$basic_istream@GU?$char_traits@G@std@@@std@@QAEAAV01@ABV01@@Z=?decorated314@@YGXXZ @314
??4?$basic_istringstream@DU?$char_traits@D@std@@V?$allocator@D@2@@std@@QAEAAV01@ABV01@@Z=?decorated315@@YGXXZ @315
??4?$basic_istringstream@GU?$char_traits@G@std@@V?$allocator@G@2@@std@@QAEAAV01@ABV01@@Z=?decorated316@@YGXXZ @316
??4?$basic_ofstream@DU?$char_traits@D@std@@@std@@QAEAAV01@ABV01@@Z=?decorated317@@YGXXZ @317
??4?$basic_ofstream@GU?$char_traits@G@std@@@std@@QAEAAV01@ABV01@@Z=?decorated318@@YGXXZ @318
??4?$basic_ostream@DU?$char_traits@D@std@@@std@@QAEAAV01@ABV01@@Z=?decorated319@@YGXXZ @319
??4?$basic_ostream@GU?$char_traits@G@std@@@std@@QAEAAV01@ABV01@@Z=?decorated320@@YGXXZ @320
??4?$basic_ostringstream@DU?$char_traits@D@std@@V?$allocator@D@2@@std@@QAEAAV01@ABV01@@Z=?decorated321@@YGXXZ @321
??4?$basic_ostringstream@GU?$char_traits@G@std@@V?$allocator@G@2@@std@@QAEAAV01@ABV01@@Z=?decorated322@@YGXXZ @322
??4?$basic_streambuf@DU?$char_traits@D@std@@@std@@QAEAAV01@ABV01@@Z=?decorated323@@YGXXZ @323
??4?$basic_streambuf@GU?$char_traits@G@std@@@std@@QAEAAV01@ABV01@@Z=?decorated324@@YGXXZ @324
??4?$basic_string@DU?$char_traits@D@std@@V?$allocator@D@2@@std@@QAEAAV01@ABV01@@Z=?decorated325@@YGXXZ @325
??4?$basic_string@DU?$char_traits@D@std@@V?$allocator@D@2@@std@@QAEAAV01@D@Z=?decorated326@@YGXXZ @326
??4?$basic_string@DU?$char_traits@D@std@@V?$allocator@D@2@@std@@QAEAAV01@PBD@Z=?decorated327@@YGXXZ @327
??4?$basic_string@GU?$char_traits@G@std@@V?$allocator@G@2@@std@@QAEAAV01@ABV01@@Z=?decorated328@@YGXXZ @328
??4?$basic_string@GU?$char_traits@G@std@@V?$allocator@G@2@@std@@QAEAAV01@G@Z=?decorated329@@YGXXZ @329
??4?$basic_string@GU?$char_traits@G@std@@V?$allocator@G@2@@std@@QAEAAV01@PBG@Z=?decorated330@@YGXXZ @330
??4?$basic_stringbuf@DU?$char_traits@D@std@@V?$allocator@D@2@@std@@QAEAAV01@ABV01@@Z=?decorated331@@YGXXZ @331
??4?$basic_stringbuf@GU?$char_traits@G@std@@V?$allocator@G@2@@std@@QAEAAV01@ABV01@@Z=?decorated332@@YGXXZ @332
??4?$basic_stringstream@DU?$char_traits@D@std@@V?$allocator@D@2@@std@@QAEAAV01@ABV01@@Z=?decorated333@@YGXXZ @333
??4?$basic_stringstream@GU?$char_traits@G@std@@V?$allocator@G@2@@std@@QAEAAV01@ABV01@@Z=?decorated334@@YGXXZ @334
??4?$char_traits@D@std@@QAEAAU01@ABU01@@Z=?decorated335@@YGXXZ @335
??4?$char_traits@G@std@@QAEAAU01@ABU01@@Z=?decorated336@@YGXXZ @336
??4?$complex@M@std@@QAEAAV01@ABM@Z=?decorated337@@YGXXZ @337
??4?$complex@M@std@@QAEAAV01@ABV01@@Z=?decorated338@@YGXXZ @338
??4?$complex@N@std@@QAEAAV01@ABN@Z=?decorated339@@YGXXZ @339
??4?$complex@N@std@@QAEAAV01@ABV01@@Z=?decorated340@@YGXXZ @340
??4?$complex@O@std@@QAEAAV01@ABO@Z=?decorated341@@YGXXZ @341
??4?$complex@O@std@@QAEAAV01@ABV01@@Z=?decorated342@@YGXXZ @342
??4?$numeric_limits@_N@std@@QAEAAV01@ABV01@@Z=?decorated355@@YGXXZ @355
??4?$numeric_limits@C@std@@QAEAAV01@ABV01@@Z=?decorated343@@YGXXZ @343
??4?$numeric_limits@D@std@@QAEAAV01@ABV01@@Z=?decorated344@@YGXXZ @344
??4?$numeric_limits@E@std@@QAEAAV01@ABV01@@Z=?decorated345@@YGXXZ @345
??4?$numeric_limits@F@std@@QAEAAV01@ABV01@@Z=?decorated346@@YGXXZ @346
??4?$numeric_limits@G@std@@QAEAAV01@ABV01@@Z=?decorated347@@YGXXZ @347
??4?$numeric_limits@H@std@@QAEAAV01@ABV01@@Z=?decorated348@@YGXXZ @348
??4?$numeric_limits@I@std@@QAEAAV01@ABV01@@Z=?decorated349@@YGXXZ @349
??4?$numeric_limits@J@std@@QAEAAV01@ABV01@@Z=?decorated350@@YGXXZ @350
??4?$numeric_limits@K@std@@QAEAAV01@ABV01@@Z=?decorated351@@YGXXZ @351
??4?$numeric_limits@M@std@@QAEAAV01@ABV01@@Z=?decorated352@@YGXXZ @352
??4?$numeric_limits@N@std@@QAEAAV01@ABV01@@Z=?decorated353@@YGXXZ @353
??4?$numeric_limits@O@std@@QAEAAV01@ABV01@@Z=?decorated354@@YGXXZ @354
??4__non_rtti_object@std@@QAEAAV01@ABV01@@Z=?decorated364@@YGXXZ @364
??4_Locinfo@std@@QAEAAV01@ABV01@@Z=?decorated357@@YGXXZ @357
??4_Lockit@std@@QAEAAV01@ABV01@@Z=?decorated358@@YGXXZ @358
??4_Num_base@std@@QAEAAU01@ABU01@@Z=?decorated359@@YGXXZ @359
??4_Num_float_base@std@@QAEAAU01@ABU01@@Z=?decorated360@@YGXXZ @360
??4_Num_int_base@std@@QAEAAU01@ABU01@@Z=?decorated361@@YGXXZ @361
??4_Timevec@std@@QAEAAV01@ABV01@@Z=?decorated362@@YGXXZ @362
??4_Winit@std@@QAEAAV01@ABV01@@Z=?decorated363@@YGXXZ @363
??4bad_alloc@std@@QAEAAV01@ABV01@@Z=?decorated365@@YGXXZ @365
??4bad_cast@std@@QAEAAV01@ABV01@@Z=?decorated366@@YGXXZ @366
??4bad_exception@std@@QAEAAV01@ABV01@@Z=?decorated367@@YGXXZ @367
??4bad_typeid@std@@QAEAAV01@ABV01@@Z=?decorated368@@YGXXZ @368
??4domain_error@std@@QAEAAV01@ABV01@@Z=?decorated369@@YGXXZ @369
??4id@locale@std@@QAEAAV012@ABV012@@Z=?decorated370@@YGXXZ @370
??4Init@ios_base@std@@QAEAAV012@ABV012@@Z=?decorated356@@YGXXZ @356
??4ios_base@std@@QAEAAV01@ABV01@@Z=?decorated371@@YGXXZ @371
??4length_error@std@@QAEAAV01@ABV01@@Z=?decorated372@@YGXXZ @372
??4locale@std@@QAEAAV01@ABV01@@Z=?decorated373@@YGXXZ @373
??4logic_error@std@@QAEAAV01@ABV01@@Z=?decorated374@@YGXXZ @374
??4out_of_range@std@@QAEAAV01@ABV01@@Z=?decorated375@@YGXXZ @375
??4overflow_error@std@@QAEAAV01@ABV01@@Z=?decorated376@@YGXXZ @376
??4range_error@std@@QAEAAV01@ABV01@@Z=?decorated377@@YGXXZ @377
??4runtime_error@std@@QAEAAV01@ABV01@@Z=?decorated378@@YGXXZ @378
??4underflow_error@std@@QAEAAV01@ABV01@@Z=?decorated379@@YGXXZ @379
??5?$basic_istream@DU?$char_traits@D@std@@@std@@QAEAAV01@AA_N@Z=?decorated390@@YGXXZ @390
??5?$basic_istream@DU?$char_traits@D@std@@@std@@QAEAAV01@AAF@Z=?decorated380@@YGXXZ @380
??5?$basic_istream@DU?$char_traits@D@std@@@std@@QAEAAV01@AAG@Z=?decorated381@@YGXXZ @381
??5?$basic_istream@DU?$char_traits@D@std@@@std@@QAEAAV01@AAH@Z=?decorated382@@YGXXZ @382
??5?$basic_istream@DU?$char_traits@D@std@@@std@@QAEAAV01@AAI@Z=?decorated383@@YGXXZ @383
??5?$basic_istream@DU?$char_traits@D@std@@@std@@QAEAAV01@AAJ@Z=?decorated384@@YGXXZ @384
??5?$basic_istream@DU?$char_traits@D@std@@@std@@QAEAAV01@AAK@Z=?decorated385@@YGXXZ @385
??5?$basic_istream@DU?$char_traits@D@std@@@std@@QAEAAV01@AAM@Z=?decorated386@@YGXXZ @386
??5?$basic_istream@DU?$char_traits@D@std@@@std@@QAEAAV01@AAN@Z=?decorated387@@YGXXZ @387
??5?$basic_istream@DU?$char_traits@D@std@@@std@@QAEAAV01@AAO@Z=?decorated388@@YGXXZ @388
??5?$basic_istream@DU?$char_traits@D@std@@@std@@QAEAAV01@AAPAX@Z=?decorated389@@YGXXZ @389
??5?$basic_istream@DU?$char_traits@D@std@@@std@@QAEAAV01@P6AAAV01@AAV01@@Z@Z=?decorated391@@YGXXZ @391
??5?$basic_istream@DU?$char_traits@D@std@@@std@@QAEAAV01@P6AAAV?$basic_ios@DU?$char_traits@D@std@@@1@AAV21@@Z@Z=?decorated392@@YGXXZ @392
??5?$basic_istream@DU?$char_traits@D@std@@@std@@QAEAAV01@P6AAAVios_base@1@AAV21@@Z@Z=?decorated393@@YGXXZ @393
??5?$basic_istream@DU?$char_traits@D@std@@@std@@QAEAAV01@PAV?$basic_streambuf@DU?$char_traits@D@std@@@1@@Z=?decorated394@@YGXXZ @394
??5?$basic_istream@GU?$char_traits@G@std@@@std@@QAEAAV01@AA_N@Z=?decorated405@@YGXXZ @405
??5?$basic_istream@GU?$char_traits@G@std@@@std@@QAEAAV01@AAF@Z=?decorated395@@YGXXZ @395
??5?$basic_istream@GU?$char_traits@G@std@@@std@@QAEAAV01@AAG@Z=?decorated396@@YGXXZ @396
??5?$basic_istream@GU?$char_traits@G@std@@@std@@QAEAAV01@AAH@Z=?decorated397@@YGXXZ @397
??5?$basic_istream@GU?$char_traits@G@std@@@std@@QAEAAV01@AAI@Z=?decorated398@@YGXXZ @398
??5?$basic_istream@GU?$char_traits@G@std@@@std@@QAEAAV01@AAJ@Z=?decorated399@@YGXXZ @399
??5?$basic_istream@GU?$char_traits@G@std@@@std@@QAEAAV01@AAK@Z=?decorated400@@YGXXZ @400
??5?$basic_istream@GU?$char_traits@G@std@@@std@@QAEAAV01@AAM@Z=?decorated401@@YGXXZ @401
??5?$basic_istream@GU?$char_traits@G@std@@@std@@QAEAAV01@AAN@Z=?decorated402@@YGXXZ @402
??5?$basic_istream@GU?$char_traits@G@std@@@std@@QAEAAV01@AAO@Z=?decorated403@@YGXXZ @403
??5?$basic_istream@GU?$char_traits@G@std@@@std@@QAEAAV01@AAPAX@Z=?decorated404@@YGXXZ @404
??5?$basic_istream@GU?$char_traits@G@std@@@std@@QAEAAV01@P6AAAV01@AAV01@@Z@Z=?decorated406@@YGXXZ @406
??5?$basic_istream@GU?$char_traits@G@std@@@std@@QAEAAV01@P6AAAV?$basic_ios@GU?$char_traits@G@std@@@1@AAV21@@Z@Z=?decorated407@@YGXXZ @407
??5?$basic_istream@GU?$char_traits@G@std@@@std@@QAEAAV01@P6AAAVios_base@1@AAV21@@Z@Z=?decorated408@@YGXXZ @408
??5?$basic_istream@GU?$char_traits@G@std@@@std@@QAEAAV01@PAV?$basic_streambuf@GU?$char_traits@G@std@@@1@@Z=?decorated409@@YGXXZ @409
??5std@@YAAAV?$basic_istream@DU?$char_traits@D@std@@@0@AAV10@AAC@Z=?decorated410@@YGXXZ @410
??5std@@YAAAV?$basic_istream@DU?$char_traits@D@std@@@0@AAV10@AAD@Z=?decorated411@@YGXXZ @411
??5std@@YAAAV?$basic_istream@DU?$char_traits@D@std@@@0@AAV10@AAE@Z=?decorated412@@YGXXZ @412
??5std@@YAAAV?$basic_istream@DU?$char_traits@D@std@@@0@AAV10@AAV?$basic_string@DU?$char_traits@D@std@@V?$allocator@D@2@@0@@Z=?decorated413@@YGXXZ @413
??5std@@YAAAV?$basic_istream@DU?$char_traits@D@std@@@0@AAV10@AAV?$complex@M@0@@Z=?decorated414@@YGXXZ @414
??5std@@YAAAV?$basic_istream@DU?$char_traits@D@std@@@0@AAV10@AAV?$complex@N@0@@Z=?decorated415@@YGXXZ @415
??5std@@YAAAV?$basic_istream@DU?$char_traits@D@std@@@0@AAV10@AAV?$complex@O@0@@Z=?decorated416@@YGXXZ @416
??5std@@YAAAV?$basic_istream@DU?$char_traits@D@std@@@0@AAV10@PAC@Z=?decorated417@@YGXXZ @417
??5std@@YAAAV?$basic_istream@DU?$char_traits@D@std@@@0@AAV10@PAD@Z=?decorated418@@YGXXZ @418
??5std@@YAAAV?$basic_istream@DU?$char_traits@D@std@@@0@AAV10@PAE@Z=?decorated419@@YGXXZ @419
??5std@@YAAAV?$basic_istream@GU?$char_traits@G@std@@@0@AAV10@AAG@Z=?decorated420@@YGXXZ @420
??5std@@YAAAV?$basic_istream@GU?$char_traits@G@std@@@0@AAV10@AAV?$basic_string@GU?$char_traits@G@std@@V?$allocator@G@2@@0@@Z=?decorated421@@YGXXZ @421
??5std@@YAAAV?$basic_istream@GU?$char_traits@G@std@@@0@AAV10@AAV?$complex@M@0@@Z=?decorated422@@YGXXZ @422
??5std@@YAAAV?$basic_istream@GU?$char_traits@G@std@@@0@AAV10@AAV?$complex@N@0@@Z=?decorated423@@YGXXZ @423
??5std@@YAAAV?$basic_istream@GU?$char_traits@G@std@@@0@AAV10@AAV?$complex@O@0@@Z=?decorated424@@YGXXZ @424
??5std@@YAAAV?$basic_istream@GU?$char_traits@G@std@@@0@AAV10@PAF@Z=?decorated425@@YGXXZ @425
??5std@@YAAAV?$basic_istream@GU?$char_traits@G@std@@@0@AAV10@PAG@Z=?decorated426@@YGXXZ @426
??6?$basic_ostream@DU?$char_traits@D@std@@@std@@QAEAAV01@_N@Z=?decorated441@@YGXXZ @441
??6?$basic_ostream@DU?$char_traits@D@std@@@std@@QAEAAV01@F@Z=?decorated427@@YGXXZ @427
??6?$basic_ostream@DU?$char_traits@D@std@@@std@@QAEAAV01@G@Z=?decorated428@@YGXXZ @428
??6?$basic_ostream@DU?$char_traits@D@std@@@std@@QAEAAV01@H@Z=?decorated429@@YGXXZ @429
??6?$basic_ostream@DU?$char_traits@D@std@@@std@@QAEAAV01@I@Z=?decorated430@@YGXXZ @430
??6?$basic_ostream@DU?$char_traits@D@std@@@std@@QAEAAV01@J@Z=?decorated431@@YGXXZ @431
??6?$basic_ostream@DU?$char_traits@D@std@@@std@@QAEAAV01@K@Z=?decorated432@@YGXXZ @432
??6?$basic_ostream@DU?$char_traits@D@std@@@std@@QAEAAV01@M@Z=?decorated433@@YGXXZ @433
??6?$basic_ostream@DU?$char_traits@D@std@@@std@@QAEAAV01@N@Z=?decorated434@@YGXXZ @434
??6?$basic_ostream@DU?$char_traits@D@std@@@std@@QAEAAV01@O@Z=?decorated435@@YGXXZ @435
??6?$basic_ostream@DU?$char_traits@D@std@@@std@@QAEAAV01@P6AAAV01@AAV01@@Z@Z=?decorated436@@YGXXZ @436
??6?$basic_ostream@DU?$char_traits@D@std@@@std@@QAEAAV01@P6AAAV?$basic_ios@DU?$char_traits@D@std@@@1@AAV21@@Z@Z=?decorated437@@YGXXZ @437
??6?$basic_ostream@DU?$char_traits@D@std@@@std@@QAEAAV01@P6AAAVios_base@1@AAV21@@Z@Z=?decorated438@@YGXXZ @438
??6?$basic_ostream@DU?$char_traits@D@std@@@std@@QAEAAV01@PAV?$basic_streambuf@DU?$char_traits@D@std@@@1@@Z=?decorated439@@YGXXZ @439
??6?$basic_ostream@DU?$char_traits@D@std@@@std@@QAEAAV01@PBX@Z=?decorated440@@YGXXZ @440
??6?$basic_ostream@GU?$char_traits@G@std@@@std@@QAEAAV01@_N@Z=?decorated456@@YGXXZ @456
??6?$basic_ostream@GU?$char_traits@G@std@@@std@@QAEAAV01@F@Z=?decorated442@@YGXXZ @442
??6?$basic_ostream@GU?$char_traits@G@std@@@std@@QAEAAV01@G@Z=?decorated443@@YGXXZ @443
??6?$basic_ostream@GU?$char_traits@G@std@@@std@@QAEAAV01@H@Z=?decorated444@@YGXXZ @444
??6?$basic_ostream@GU?$char_traits@G@std@@@std@@QAEAAV01@I@Z=?decorated445@@YGXXZ @445
??6?$basic_ostream@GU?$char_traits@G@std@@@std@@QAEAAV01@J@Z=?decorated446@@YGXXZ @446
??6?$basic_ostream@GU?$char_traits@G@std@@@std@@QAEAAV01@K@Z=?decorated447@@YGXXZ @447
??6?$basic_ostream@GU?$char_traits@G@std@@@std@@QAEAAV01@M@Z=?decorated448@@YGXXZ @448
??6?$basic_ostream@GU?$char_traits@G@std@@@std@@QAEAAV01@N@Z=?decorated449@@YGXXZ @449
??6?$basic_ostream@GU?$char_traits@G@std@@@std@@QAEAAV01@O@Z=?decorated450@@YGXXZ @450
??6?$basic_ostream@GU?$char_traits@G@std@@@std@@QAEAAV01@P6AAAV01@AAV01@@Z@Z=?decorated451@@YGXXZ @451
??6?$basic_ostream@GU?$char_traits@G@std@@@std@@QAEAAV01@P6AAAV?$basic_ios@GU?$char_traits@G@std@@@1@AAV21@@Z@Z=?decorated452@@YGXXZ @452
??6?$basic_ostream@GU?$char_traits@G@std@@@std@@QAEAAV01@P6AAAVios_base@1@AAV21@@Z@Z=?decorated453@@YGXXZ @453
??6?$basic_ostream@GU?$char_traits@G@std@@@std@@QAEAAV01@PAV?$basic_streambuf@GU?$char_traits@G@std@@@1@@Z=?decorated454@@YGXXZ @454
??6?$basic_ostream@GU?$char_traits@G@std@@@std@@QAEAAV01@PBX@Z=?decorated455@@YGXXZ @455
??6std@@YAAAV?$basic_ostream@DU?$char_traits@D@std@@@0@AAV10@ABV?$basic_string@DU?$char_traits@D@std@@V?$allocator@D@2@@0@@Z=?decorated457@@YGXXZ @457
??6std@@YAAAV?$basic_ostream@DU?$char_traits@D@std@@@0@AAV10@ABV?$complex@M@0@@Z=?decorated458@@YGXXZ @458
??6std@@YAAAV?$basic_ostream@DU?$char_traits@D@std@@@0@AAV10@ABV?$complex@N@0@@Z=?decorated459@@YGXXZ @459
??6std@@YAAAV?$basic_ostream@DU?$char_traits@D@std@@@0@AAV10@ABV?$complex@O@0@@Z=?decorated460@@YGXXZ @460
??6std@@YAAAV?$basic_ostream@DU?$char_traits@D@std@@@0@AAV10@C@Z=?decorated461@@YGXXZ @461
??6std@@YAAAV?$basic_ostream@DU?$char_traits@D@std@@@0@AAV10@D@Z=?decorated462@@YGXXZ @462
??6std@@YAAAV?$basic_ostream@DU?$char_traits@D@std@@@0@AAV10@E@Z=?decorated463@@YGXXZ @463
??6std@@YAAAV?$basic_ostream@DU?$char_traits@D@std@@@0@AAV10@PBC@Z=?decorated464@@YGXXZ @464
??6std@@YAAAV?$basic_ostream@DU?$char_traits@D@std@@@0@AAV10@PBD@Z=?decorated465@@YGXXZ @465
??6std@@YAAAV?$basic_ostream@DU?$char_traits@D@std@@@0@AAV10@PBE@Z=?decorated466@@YGXXZ @466
??6std@@YAAAV?$basic_ostream@GU?$char_traits@G@std@@@0@AAV10@ABV?$basic_string@GU?$char_traits@G@std@@V?$allocator@G@2@@0@@Z=?decorated467@@YGXXZ @467
??6std@@YAAAV?$basic_ostream@GU?$char_traits@G@std@@@0@AAV10@ABV?$complex@M@0@@Z=?decorated468@@YGXXZ @468
??6std@@YAAAV?$basic_ostream@GU?$char_traits@G@std@@@0@AAV10@ABV?$complex@N@0@@Z=?decorated469@@YGXXZ @469
??6std@@YAAAV?$basic_ostream@GU?$char_traits@G@std@@@0@AAV10@ABV?$complex@O@0@@Z=?decorated470@@YGXXZ @470
??6std@@YAAAV?$basic_ostream@GU?$char_traits@G@std@@@0@AAV10@G@Z=?decorated471@@YGXXZ @471
??6std@@YAAAV?$basic_ostream@GU?$char_traits@G@std@@@0@AAV10@PBF@Z=?decorated472@@YGXXZ @472
??6std@@YAAAV?$basic_ostream@GU?$char_traits@G@std@@@0@AAV10@PBG@Z=?decorated473@@YGXXZ @473
??7ios_base@std@@QBE_NXZ=?decorated474@@YGXXZ @474
??8locale@std@@QBE_NABV01@@Z=?decorated475@@YGXXZ @475
??8std@@YA_NABMABV?$complex@M@0@@Z=?decorated476@@YGXXZ @476
??8std@@YA_NABNABV?$complex@N@0@@Z=?decorated477@@YGXXZ @477
??8std@@YA_NABOABV?$complex@O@0@@Z=?decorated478@@YGXXZ @478
??8std@@YA_NABV?$basic_string@DU?$char_traits@D@std@@V?$allocator@D@2@@0@0@Z=?decorated479@@YGXXZ @479
??8std@@YA_NABV?$basic_string@DU?$char_traits@D@std@@V?$allocator@D@2@@0@PBD@Z=?decorated480@@YGXXZ @480
??8std@@YA_NABV?$basic_string@GU?$char_traits@G@std@@V?$allocator@G@2@@0@0@Z=?decorated481@@YGXXZ @481
??8std@@YA_NABV?$basic_string@GU?$char_traits@G@std@@V?$allocator@G@2@@0@PBG@Z=?decorated482@@YGXXZ @482
??8std@@YA_NABV?$complex@M@0@0@Z=?decorated483@@YGXXZ @483
??8std@@YA_NABV?$complex@M@0@ABM@Z=?decorated484@@YGXXZ @484
??8std@@YA_NABV?$complex@N@0@0@Z=?decorated485@@YGXXZ @485
??8std@@YA_NABV?$complex@N@0@ABN@Z=?decorated486@@YGXXZ @486
??8std@@YA_NABV?$complex@O@0@0@Z=?decorated487@@YGXXZ @487
??8std@@YA_NABV?$complex@O@0@ABO@Z=?decorated488@@YGXXZ @488
??8std@@YA_NPBDABV?$basic_string@DU?$char_traits@D@std@@V?$allocator@D@2@@0@@Z=?decorated489@@YGXXZ @489
??8std@@YA_NPBGABV?$basic_string@GU?$char_traits@G@std@@V?$allocator@G@2@@0@@Z=?decorated490@@YGXXZ @490
??9locale@std@@QBE_NABV01@@Z=?decorated491@@YGXXZ @491
??9std@@YA_NABMABV?$complex@M@0@@Z=?decorated492@@YGXXZ @492
??9std@@YA_NABNABV?$complex@N@0@@Z=?decorated493@@YGXXZ @493
??9std@@YA_NABOABV?$complex@O@0@@Z=?decorated494@@YGXXZ @494
??9std@@YA_NABV?$basic_string@DU?$char_traits@D@std@@V?$allocator@D@2@@0@0@Z=?decorated495@@YGXXZ @495
??9std@@YA_NABV?$basic_string@DU?$char_traits@D@std@@V?$allocator@D@2@@0@PBD@Z=?decorated496@@YGXXZ @496
??9std@@YA_NABV?$basic_string@GU?$char_traits@G@std@@V?$allocator@G@2@@0@0@Z=?decorated497@@YGXXZ @497
??9std@@YA_NABV?$basic_string@GU?$char_traits@G@std@@V?$allocator@G@2@@0@PBG@Z=?decorated498@@YGXXZ @498
??9std@@YA_NABV?$complex@M@0@0@Z=?decorated499@@YGXXZ @499
??9std@@YA_NABV?$complex@M@0@ABM@Z=?decorated500@@YGXXZ @500
??9std@@YA_NABV?$complex@N@0@0@Z=?decorated501@@YGXXZ @501
??9std@@YA_NABV?$complex@N@0@ABN@Z=?decorated502@@YGXXZ @502
??9std@@YA_NABV?$complex@O@0@0@Z=?decorated503@@YGXXZ @503
??9std@@YA_NABV?$complex@O@0@ABO@Z=?decorated504@@YGXXZ @504
??9std@@YA_NPBDABV?$basic_string@DU?$char_traits@D@std@@V?$allocator@D@2@@0@@Z=?decorated505@@YGXXZ @505
??9std@@YA_NPBGABV?$basic_string@GU?$char_traits@G@std@@V?$allocator@G@2@@0@@Z=?decorated506@@YGXXZ @506
??_0?$_Complex_base@M@std@@QAEAAV01@ABM@Z=?decorated614@@YGXXZ @614
??_0?$_Complex_base@N@std@@QAEAAV01@ABN@Z=?decorated615@@YGXXZ @615
??_0?$_Complex_base@O@std@@QAEAAV01@ABO@Z=?decorated616@@YGXXZ @616
??_0std@@YAAAV?$complex@M@0@AAV10@ABV10@@Z=?decorated617@@YGXXZ @617
??_0std@@YAAAV?$complex@N@0@AAV10@ABV10@@Z=?decorated618@@YGXXZ @618
??_0std@@YAAAV?$complex@O@0@AAV10@ABV10@@Z=?decorated619@@YGXXZ @619
??_7?$_Mpunct@D@std@@6B@=?decorated620@@YGXXZ @620
??_7?$_Mpunct@G@std@@6B@=?decorated621@@YGXXZ @621
??_7?$basic_filebuf@DU?$char_traits@D@std@@@std@@6B@=?decorated622@@YGXXZ @622
??_7?$basic_filebuf@GU?$char_traits@G@std@@@std@@6B@=?decorated623@@YGXXZ @623
??_7?$basic_fstream@DU?$char_traits@D@std@@@std@@6B@=?decorated624@@YGXXZ @624
??_7?$basic_fstream@GU?$char_traits@G@std@@@std@@6B@=?decorated625@@YGXXZ @625
??_7?$basic_ifstream@DU?$char_traits@D@std@@@std@@6B@=?decorated626@@YGXXZ @626
??_7?$basic_ifstream@GU?$char_traits@G@std@@@std@@6B@=?decorated627@@YGXXZ @627
??_7?$basic_ios@DU?$char_traits@D@std@@@std@@6B@=?decorated628@@YGXXZ @628
??_7?$basic_ios@GU?$char_traits@G@std@@@std@@6B@=?decorated629@@YGXXZ @629
??_7?$basic_iostream@DU?$char_traits@D@std@@@std@@6B@=?decorated630@@YGXXZ @630
??_7?$basic_iostream@GU?$char_traits@G@std@@@std@@6B@=?decorated631@@YGXXZ @631
??_7?$basic_istream@DU?$char_traits@D@std@@@std@@6B@=?decorated632@@YGXXZ @632
??_7?$basic_istream@GU?$char_traits@G@std@@@std@@6B@=?decorated633@@YGXXZ @633
??_7?$basic_istringstream@DU?$char_traits@D@std@@V?$allocator@D@2@@std@@6B@=?decorated634@@YGXXZ @634
??_7?$basic_istringstream@GU?$char_traits@G@std@@V?$allocator@G@2@@std@@6B@=?decorated635@@YGXXZ @635
??_7?$basic_ofstream@DU?$char_traits@D@std@@@std@@6B@=?decorated636@@YGXXZ @636
??_7?$basic_ofstream@GU?$char_traits@G@std@@@std@@6B@=?decorated637@@YGXXZ @637
??_7?$basic_ostream@DU?$char_traits@D@std@@@std@@6B@=?decorated638@@YGXXZ @638
??_7?$basic_ostream@GU?$char_traits@G@std@@@std@@6B@=?decorated639@@YGXXZ @639
??_7?$basic_ostringstream@DU?$char_traits@D@std@@V?$allocator@D@2@@std@@6B@=?decorated640@@YGXXZ @640
??_7?$basic_ostringstream@GU?$char_traits@G@std@@V?$allocator@G@2@@std@@6B@=?decorated641@@YGXXZ @641
??_7?$basic_streambuf@DU?$char_traits@D@std@@@std@@6B@=?decorated642@@YGXXZ @642
??_7?$basic_streambuf@GU?$char_traits@G@std@@@std@@6B@=?decorated643@@YGXXZ @643
??_7?$basic_stringbuf@DU?$char_traits@D@std@@V?$allocator@D@2@@std@@6B@=?decorated644@@YGXXZ @644
??_7?$basic_stringbuf@GU?$char_traits@G@std@@V?$allocator@G@2@@std@@6B@=?decorated645@@YGXXZ @645
??_7?$basic_stringstream@DU?$char_traits@D@std@@V?$allocator@D@2@@std@@6B@=?decorated646@@YGXXZ @646
??_7?$basic_stringstream@GU?$char_traits@G@std@@V?$allocator@G@2@@std@@6B@=?decorated647@@YGXXZ @647
??_7?$codecvt@DDH@std@@6B@=?decorated648@@YGXXZ @648
??_7?$codecvt@GDH@std@@6B@=?decorated649@@YGXXZ @649
??_7?$collate@D@std@@6B@=?decorated650@@YGXXZ @650
??_7?$collate@G@std@@6B@=?decorated651@@YGXXZ @651
??_7?$ctype@D@std@@6B@=?decorated652@@YGXXZ @652
??_7?$ctype@G@std@@6B@=?decorated653@@YGXXZ @653
??_7?$messages@D@std@@6B@=?decorated654@@YGXXZ @654
??_7?$messages@G@std@@6B@=?decorated655@@YGXXZ @655
??_7?$money_get@DV?$istreambuf_iterator@DU?$char_traits@D@std@@@std@@@std@@6B@=?decorated656@@YGXXZ @656
??_7?$money_get@GV?$istreambuf_iterator@GU?$char_traits@G@std@@@std@@@std@@6B@=?decorated657@@YGXXZ @657
??_7?$money_put@DV?$ostreambuf_iterator@DU?$char_traits@D@std@@@std@@@std@@6B@=?decorated658@@YGXXZ @658
??_7?$money_put@GV?$ostreambuf_iterator@GU?$char_traits@G@std@@@std@@@std@@6B@=?decorated659@@YGXXZ @659
??_7?$moneypunct@D$00@std@@6B@=?decorated660@@YGXXZ @660
??_7?$moneypunct@D$0A@@std@@6B@=?decorated661@@YGXXZ @661
??_7?$moneypunct@G$00@std@@6B@=?decorated662@@YGXXZ @662
??_7?$moneypunct@G$0A@@std@@6B@=?decorated663@@YGXXZ @663
??_7?$num_get@DV?$istreambuf_iterator@DU?$char_traits@D@std@@@std@@@std@@6B@=?decorated664@@YGXXZ @664
??_7?$num_get@GV?$istreambuf_iterator@GU?$char_traits@G@std@@@std@@@std@@6B@=?decorated665@@YGXXZ @665
??_7?$num_put@DV?$ostreambuf_iterator@DU?$char_traits@D@std@@@std@@@std@@6B@=?decorated666@@YGXXZ @666
??_7?$num_put@GV?$ostreambuf_iterator@GU?$char_traits@G@std@@@std@@@std@@6B@=?decorated667@@YGXXZ @667
??_7?$numpunct@D@std@@6B@=?decorated668@@YGXXZ @668
??_7?$numpunct@G@std@@6B@=?decorated669@@YGXXZ @669
??_7?$time_get@DV?$istreambuf_iterator@DU?$char_traits@D@std@@@std@@@std@@6B@=?decorated670@@YGXXZ @670
??_7?$time_get@GV?$istreambuf_iterator@GU?$char_traits@G@std@@@std@@@std@@6B@=?decorated671@@YGXXZ @671
??_7?$time_put@DV?$ostreambuf_iterator@DU?$char_traits@D@std@@@std@@@std@@6B@=?decorated672@@YGXXZ @672
??_7?$time_put@GV?$ostreambuf_iterator@GU?$char_traits@G@std@@@std@@@std@@6B@=?decorated673@@YGXXZ @673
??_7__non_rtti_object@std@@6B@=?decorated674@@YGXXZ @674
??_7bad_alloc@std@@6B@=?decorated675@@YGXXZ @675
??_7bad_cast@std@@6B@=?decorated676@@YGXXZ @676
??_7bad_exception@std@@6B@=?decorated677@@YGXXZ @677
??_7bad_typeid@std@@6B@=?decorated678@@YGXXZ @678
??_7codecvt_base@std@@6B@=?decorated679@@YGXXZ @679
??_7ctype_base@std@@6B@=?decorated680@@YGXXZ @680
??_7domain_error@std@@6B@=?decorated681@@YGXXZ @681
??_7facet@locale@std@@6B@=?decorated682@@YGXXZ @682
??_7ios_base@std@@6B@=?decorated683@@YGXXZ @683
??_7length_error@std@@6B@=?decorated684@@YGXXZ @684
??_7logic_error@std@@6B@=?decorated685@@YGXXZ @685
??_7messages_base@std@@6B@=?decorated686@@YGXXZ @686
??_7money_base@std@@6B@=?decorated687@@YGXXZ @687
??_7out_of_range@std@@6B@=?decorated688@@YGXXZ @688
??_7overflow_error@std@@6B@=?decorated689@@YGXXZ @689
??_7range_error@std@@6B@=?decorated690@@YGXXZ @690
??_7runtime_error@std@@6B@=?decorated691@@YGXXZ @691
??_7time_base@std@@6B@=?decorated692@@YGXXZ @692
??_7underflow_error@std@@6B@=?decorated693@@YGXXZ @693
??_8?$basic_fstream@DU?$char_traits@D@std@@@std@@7B?$basic_istream@DU?$char_traits@D@std@@@1@@=?decorated694@@YGXXZ @694
??_8?$basic_fstream@DU?$char_traits@D@std@@@std@@7B?$basic_ostream@DU?$char_traits@D@std@@@1@@=?decorated695@@YGXXZ @695
??_8?$basic_fstream@GU?$char_traits@G@std@@@std@@7B?$basic_istream@GU?$char_traits@G@std@@@1@@=?decorated696@@YGXXZ @696
??_8?$basic_fstream@GU?$char_traits@G@std@@@std@@7B?$basic_ostream@GU?$char_traits@G@std@@@1@@=?decorated697@@YGXXZ @697
??_8?$basic_ifstream@DU?$char_traits@D@std@@@std@@7B@=?decorated698@@YGXXZ @698
??_8?$basic_ifstream@GU?$char_traits@G@std@@@std@@7B@=?decorated699@@YGXXZ @699
??_8?$basic_iostream@DU?$char_traits@D@std@@@std@@7B?$basic_istream@DU?$char_traits@D@std@@@1@@=?decorated700@@YGXXZ @700
??_8?$basic_iostream@DU?$char_traits@D@std@@@std@@7B?$basic_ostream@DU?$char_traits@D@std@@@1@@=?decorated701@@YGXXZ @701
??_8?$basic_iostream@GU?$char_traits@G@std@@@std@@7B?$basic_istream@GU?$char_traits@G@std@@@1@@=?decorated702@@YGXXZ @702
??_8?$basic_iostream@GU?$char_traits@G@std@@@std@@7B?$basic_ostream@GU?$char_traits@G@std@@@1@@=?decorated703@@YGXXZ @703
??_8?$basic_istream@DU?$char_traits@D@std@@@std@@7B@=?decorated704@@YGXXZ @704
??_8?$basic_istream@GU?$char_traits@G@std@@@std@@7B@=?decorated705@@YGXXZ @705
??_8?$basic_istringstream@DU?$char_traits@D@std@@V?$allocator@D@2@@std@@7B@=?decorated706@@YGXXZ @706
??_8?$basic_istringstream@GU?$char_traits@G@std@@V?$allocator@G@2@@std@@7B@=?decorated707@@YGXXZ @707
??_8?$basic_ofstream@DU?$char_traits@D@std@@@std@@7B@=?decorated708@@YGXXZ @708
??_8?$basic_ofstream@GU?$char_traits@G@std@@@std@@7B@=?decorated709@@YGXXZ @709
??_8?$basic_ostream@DU?$char_traits@D@std@@@std@@7B@=?decorated710@@YGXXZ @710
??_8?$basic_ostream@GU?$char_traits@G@std@@@std@@7B@=?decorated711@@YGXXZ @711
??_8?$basic_ostringstream@DU?$char_traits@D@std@@V?$allocator@D@2@@std@@7B@=?decorated712@@YGXXZ @712
??_8?$basic_ostringstream@GU?$char_traits@G@std@@V?$allocator@G@2@@std@@7B@=?decorated713@@YGXXZ @713
??_8?$basic_stringstream@DU?$char_traits@D@std@@V?$allocator@D@2@@std@@7B?$basic_istream@DU?$char_traits@D@std@@@1@@=?decorated714@@YGXXZ @714
??_8?$basic_stringstream@DU?$char_traits@D@std@@V?$allocator@D@2@@std@@7B?$basic_ostream@DU?$char_traits@D@std@@@1@@=?decorated715@@YGXXZ @715
??_8?$basic_stringstream@GU?$char_traits@G@std@@V?$allocator@G@2@@std@@7B?$basic_istream@GU?$char_traits@G@std@@@1@@=?decorated716@@YGXXZ @716
??_8?$basic_stringstream@GU?$char_traits@G@std@@V?$allocator@G@2@@std@@7B?$basic_ostream@GU?$char_traits@G@std@@@1@@=?decorated717@@YGXXZ @717
??_C@_00A@?$AA@=?decorated718@@YGXXZ @718
??_C@_01FKHJ@C?$AA@=?decorated719@@YGXXZ @719
??_C@_01GJD@?9?$AA@=?decorated720@@YGXXZ @720
??_C@_01KFAL@E?$AA@=?decorated721@@YGXXZ @721
??_C@_01KMAE@?0?$AA@=?decorated722@@YGXXZ @722
??_C@_01PHOL@e?$AA@=?decorated723@@YGXXZ @723
??_C@_02ELCB@no?$AA@=?decorated724@@YGXXZ @724
??_C@_02MHAC@?$CFp?$AA@=?decorated725@@YGXXZ @725
??_C@_03LGKI@yes?$AA@=?decorated726@@YGXXZ @726
??_C@_04HDBI@$?$CLvx?$AA@=?decorated727@@YGXXZ @727
??_C@_04HHID@?$CB?$CFx?$AA?$AA@=?decorated728@@YGXXZ @728
??_C@_04NCCD@true?$AA@=?decorated729@@YGXXZ @729
??_C@_05FFJC@?$CF?40Lf?$AA@=?decorated730@@YGXXZ @730
??_C@_05NAGO@false?$AA@=?decorated731@@YGXXZ @731
??_C@_08JHLB@bad?5cast?$AA@=?decorated732@@YGXXZ @732
??_C@_0BH@CFAI@0123456789abcdefABCDEF?$AA@=?decorated733@@YGXXZ @733
??_C@_0FB@PNAB@?$CLv$x?$CLv$xv$?$CLxv?$CL$xv$?$CLx?$CL$vx?$CL$vx$v?$CLx@=?decorated734@@YGXXZ @734
??_C@_0FG@ILEN@?3Sun?3Sunday?3Mon?3Monday?3Tue?3Tuesd@=?decorated735@@YGXXZ @735
??_C@_0IH@JLLA@?3Jan?3January?3Feb?3February?3Mar?3Ma@=?decorated736@@YGXXZ @736
??_C@_0L@HLOL@bad?5typeid?$AA@=?decorated737@@YGXXZ @737
??_C@_0O@NLHM@bad?5exception?$AA@=?decorated738@@YGXXZ @738
??_C@_0P@LJNA@bad?5allocation?$AA@=?decorated739@@YGXXZ @739
??_D?$basic_fstream@DU?$char_traits@D@std@@@std@@QAEXXZ=?decorated740@@YGXXZ @740
??_D?$basic_fstream@GU?$char_traits@G@std@@@std@@QAEXXZ=?decorated741@@YGXXZ @741
??_D?$basic_ifstream@DU?$char_traits@D@std@@@std@@QAEXXZ=?decorated742@@YGXXZ @742
??_D?$basic_ifstream@GU?$char_traits@G@std@@@std@@QAEXXZ=?decorated743@@YGXXZ @743
??_D?$basic_iostream@DU?$char_traits@D@std@@@std@@QAEXXZ=?decorated744@@YGXXZ @744
??_D?$basic_iostream@GU?$char_traits@G@std@@@std@@QAEXXZ=?decorated745@@YGXXZ @745
??_D?$basic_istream@DU?$char_traits@D@std@@@std@@QAEXXZ=?decorated746@@YGXXZ @746
??_D?$basic_istream@GU?$char_traits@G@std@@@std@@QAEXXZ=?decorated747@@YGXXZ @747
??_D?$basic_istringstream@DU?$char_traits@D@std@@V?$allocator@D@2@@std@@QAEXXZ=?decorated748@@YGXXZ @748
??_D?$basic_istringstream@GU?$char_traits@G@std@@V?$allocator@G@2@@std@@QAEXXZ=?decorated749@@YGXXZ @749
??_D?$basic_ofstream@DU?$char_traits@D@std@@@std@@QAEXXZ=?decorated750@@YGXXZ @750
??_D?$basic_ofstream@GU?$char_traits@G@std@@@std@@QAEXXZ=?decorated751@@YGXXZ @751
??_D?$basic_ostream@DU?$char_traits@D@std@@@std@@QAEXXZ=?decorated752@@YGXXZ @752
??_D?$basic_ostream@GU?$char_traits@G@std@@@std@@QAEXXZ=?decorated753@@YGXXZ @753
??_D?$basic_ostringstream@DU?$char_traits@D@std@@V?$allocator@D@2@@std@@QAEXXZ=?decorated754@@YGXXZ @754
??_D?$basic_ostringstream@GU?$char_traits@G@std@@V?$allocator@G@2@@std@@QAEXXZ=?decorated755@@YGXXZ @755
??_D?$basic_stringstream@DU?$char_traits@D@std@@V?$allocator@D@2@@std@@QAEXXZ=?decorated756@@YGXXZ @756
??_D?$basic_stringstream@GU?$char_traits@G@std@@V?$allocator@G@2@@std@@QAEXXZ=?decorated757@@YGXXZ @757
??_F?$basic_filebuf@DU?$char_traits@D@std@@@std@@QAEXXZ=?decorated758@@YGXXZ @758
??_F?$basic_filebuf@GU?$char_traits@G@std@@@std@@QAEXXZ=?decorated759@@YGXXZ @759
??_F?$basic_istringstream@DU?$char_traits@D@std@@V?$allocator@D@2@@std@@QAEXXZ=?decorated760@@YGXXZ @760
??_F?$basic_istringstream@GU?$char_traits@G@std@@V?$allocator@G@2@@std@@QAEXXZ=?decorated761@@YGXXZ @761
??_F?$basic_ostringstream@DU?$char_traits@D@std@@V?$allocator@D@2@@std@@QAEXXZ=?decorated762@@YGXXZ @762
??_F?$basic_ostringstream@GU?$char_traits@G@std@@V?$allocator@G@2@@std@@QAEXXZ=?decorated763@@YGXXZ @763
??_F?$basic_string@DU?$char_traits@D@std@@V?$allocator@D@2@@std@@QAEXXZ=?decorated764@@YGXXZ @764
??_F?$basic_string@GU?$char_traits@G@std@@V?$allocator@G@2@@std@@QAEXXZ=?decorated765@@YGXXZ @765
??_F?$basic_stringbuf@DU?$char_traits@D@std@@V?$allocator@D@2@@std@@QAEXXZ=?decorated766@@YGXXZ @766
??_F?$basic_stringbuf@GU?$char_traits@G@std@@V?$allocator@G@2@@std@@QAEXXZ=?decorated767@@YGXXZ @767
??_F?$basic_stringstream@DU?$char_traits@D@std@@V?$allocator@D@2@@std@@QAEXXZ=?decorated768@@YGXXZ @768
??_F?$basic_stringstream@GU?$char_traits@G@std@@V?$allocator@G@2@@std@@QAEXXZ=?decorated769@@YGXXZ @769
??_F?$codecvt@DDH@std@@QAEXXZ=?decorated770@@YGXXZ @770
??_F?$codecvt@GDH@std@@QAEXXZ=?decorated771@@YGXXZ @771
??_F?$collate@D@std@@QAEXXZ=?decorated772@@YGXXZ @772
??_F?$collate@G@std@@QAEXXZ=?decorated773@@YGXXZ @773
??_F?$complex@M@std@@QAEXXZ=?decorated774@@YGXXZ @774
??_F?$complex@N@std@@QAEXXZ=?decorated775@@YGXXZ @775
??_F?$complex@O@std@@QAEXXZ=?decorated776@@YGXXZ @776
??_F?$ctype@D@std@@QAEXXZ=?decorated777@@YGXXZ @777
??_F?$ctype@G@std@@QAEXXZ=?decorated778@@YGXXZ @778
??_F?$messages@D@std@@QAEXXZ=?decorated779@@YGXXZ @779
??_F?$messages@G@std@@QAEXXZ=?decorated780@@YGXXZ @780
??_F?$money_get@DV?$istreambuf_iterator@DU?$char_traits@D@std@@@std@@@std@@QAEXXZ=?decorated781@@YGXXZ @781
??_F?$money_get@GV?$istreambuf_iterator@GU?$char_traits@G@std@@@std@@@std@@QAEXXZ=?decorated782@@YGXXZ @782
??_F?$money_put@DV?$ostreambuf_iterator@DU?$char_traits@D@std@@@std@@@std@@QAEXXZ=?decorated783@@YGXXZ @783
??_F?$money_put@GV?$ostreambuf_iterator@GU?$char_traits@G@std@@@std@@@std@@QAEXXZ=?decorated784@@YGXXZ @784
??_F?$moneypunct@D$00@std@@QAEXXZ=?decorated785@@YGXXZ @785
??_F?$moneypunct@D$0A@@std@@QAEXXZ=?decorated786@@YGXXZ @786
??_F?$moneypunct@G$00@std@@QAEXXZ=?decorated787@@YGXXZ @787
??_F?$moneypunct@G$0A@@std@@QAEXXZ=?decorated788@@YGXXZ @788
??_F?$num_get@DV?$istreambuf_iterator@DU?$char_traits@D@std@@@std@@@std@@QAEXXZ=?decorated789@@YGXXZ @789
??_F?$num_get@GV?$istreambuf_iterator@GU?$char_traits@G@std@@@std@@@std@@QAEXXZ=?decorated790@@YGXXZ @790
??_F?$num_put@DV?$ostreambuf_iterator@DU?$char_traits@D@std@@@std@@@std@@QAEXXZ=?decorated791@@YGXXZ @791
??_F?$num_put@GV?$ostreambuf_iterator@GU?$char_traits@G@std@@@std@@@std@@QAEXXZ=?decorated792@@YGXXZ @792
??_F?$numpunct@D@std@@QAEXXZ=?decorated793@@YGXXZ @793
??_F?$numpunct@G@std@@QAEXXZ=?decorated794@@YGXXZ @794
??_F?$time_get@DV?$istreambuf_iterator@DU?$char_traits@D@std@@@std@@@std@@QAEXXZ=?decorated795@@YGXXZ @795
??_F?$time_get@GV?$istreambuf_iterator@GU?$char_traits@G@std@@@std@@@std@@QAEXXZ=?decorated796@@YGXXZ @796
??_F?$time_put@DV?$ostreambuf_iterator@DU?$char_traits@D@std@@@std@@@std@@QAEXXZ=?decorated797@@YGXXZ @797
??_F?$time_put@GV?$ostreambuf_iterator@GU?$char_traits@G@std@@@std@@@std@@QAEXXZ=?decorated798@@YGXXZ @798
??_F_Locinfo@std@@QAEXXZ=?decorated799@@YGXXZ @799
??_F_Timevec@std@@QAEXXZ=?decorated800@@YGXXZ @800
??_Fbad_alloc@std@@QAEXXZ=?decorated801@@YGXXZ @801
??_Fbad_cast@std@@QAEXXZ=?decorated802@@YGXXZ @802
??_Fbad_exception@std@@QAEXXZ=?decorated803@@YGXXZ @803
??_Fbad_typeid@std@@QAEXXZ=?decorated804@@YGXXZ @804
??_Fcodecvt_base@std@@QAEXXZ=?decorated805@@YGXXZ @805
??_Fctype_base@std@@QAEXXZ=?decorated806@@YGXXZ @806
??_Ffacet@locale@std@@QAEXXZ=?decorated807@@YGXXZ @807
??_Fmessages_base@std@@QAEXXZ=?decorated808@@YGXXZ @808
??_Fmoney_base@std@@QAEXXZ=?decorated809@@YGXXZ @809
??_Ftime_base@std@@QAEXXZ=?decorated810@@YGXXZ @810
??A?$basic_string@DU?$char_traits@D@std@@V?$allocator@D@2@@std@@QAEAADI@Z=?decorated507@@YGXXZ @507
??A?$basic_string@DU?$char_traits@D@std@@V?$allocator@D@2@@std@@QBEABDI@Z=?decorated508@@YGXXZ @508
??A?$basic_string@GU?$char_traits@G@std@@V?$allocator@G@2@@std@@QAEAAGI@Z=?decorated509@@YGXXZ @509
??A?$basic_string@GU?$char_traits@G@std@@V?$allocator@G@2@@std@@QBEABGI@Z=?decorated510@@YGXXZ @510
??Bid@locale@std@@QAEIXZ=?decorated511@@YGXXZ @511
??Bios_base@std@@QBEPAXXZ=?decorated512@@YGXXZ @512
??Dstd@@YA?AV?$complex@M@0@ABMABV10@@Z=?decorated513@@YGXXZ @513
??Dstd@@YA?AV?$complex@M@0@ABV10@0@Z=?decorated514@@YGXXZ @514
??Dstd@@YA?AV?$complex@M@0@ABV10@ABM@Z=?decorated515@@YGXXZ @515
??Dstd@@YA?AV?$complex@N@0@ABNABV10@@Z=?decorated516@@YGXXZ @516
??Dstd@@YA?AV?$complex@N@0@ABV10@0@Z=?decorated517@@YGXXZ @517
??Dstd@@YA?AV?$complex@N@0@ABV10@ABN@Z=?decorated518@@YGXXZ @518
??Dstd@@YA?AV?$complex@O@0@ABOABV10@@Z=?decorated519@@YGXXZ @519
??Dstd@@YA?AV?$complex@O@0@ABV10@0@Z=?decorated520@@YGXXZ @520
??Dstd@@YA?AV?$complex@O@0@ABV10@ABO@Z=?decorated521@@YGXXZ @521
??Gstd@@YA?AV?$complex@M@0@ABMABV10@@Z=?decorated522@@YGXXZ @522
??Gstd@@YA?AV?$complex@M@0@ABV10@0@Z=?decorated523@@YGXXZ @523
??Gstd@@YA?AV?$complex@M@0@ABV10@@Z=?decorated524@@YGXXZ @524
??Gstd@@YA?AV?$complex@M@0@ABV10@ABM@Z=?decorated525@@YGXXZ @525
??Gstd@@YA?AV?$complex@N@0@ABNABV10@@Z=?decorated526@@YGXXZ @526
??Gstd@@YA?AV?$complex@N@0@ABV10@0@Z=?decorated527@@YGXXZ @527
??Gstd@@YA?AV?$complex@N@0@ABV10@@Z=?decorated528@@YGXXZ @528
??Gstd@@YA?AV?$complex@N@0@ABV10@ABN@Z=?decorated529@@YGXXZ @529
??Gstd@@YA?AV?$complex@O@0@ABOABV10@@Z=?decorated530@@YGXXZ @530
??Gstd@@YA?AV?$complex@O@0@ABV10@0@Z=?decorated531@@YGXXZ @531
??Gstd@@YA?AV?$complex@O@0@ABV10@@Z=?decorated532@@YGXXZ @532
??Gstd@@YA?AV?$complex@O@0@ABV10@ABO@Z=?decorated533@@YGXXZ @533
??Hstd@@YA?AV?$basic_string@DU?$char_traits@D@std@@V?$allocator@D@2@@0@ABV10@0@Z=?decorated534@@YGXXZ @534
??Hstd@@YA?AV?$basic_string@DU?$char_traits@D@std@@V?$allocator@D@2@@0@ABV10@D@Z=?decorated535@@YGXXZ @535
??Hstd@@YA?AV?$basic_string@DU?$char_traits@D@std@@V?$allocator@D@2@@0@ABV10@PBD@Z=?decorated536@@YGXXZ @536
??Hstd@@YA?AV?$basic_string@DU?$char_traits@D@std@@V?$allocator@D@2@@0@DABV10@@Z=?decorated537@@YGXXZ @537
??Hstd@@YA?AV?$basic_string@DU?$char_traits@D@std@@V?$allocator@D@2@@0@PBDABV10@@Z=?decorated538@@YGXXZ @538
??Hstd@@YA?AV?$basic_string@GU?$char_traits@G@std@@V?$allocator@G@2@@0@ABV10@0@Z=?decorated539@@YGXXZ @539
??Hstd@@YA?AV?$basic_string@GU?$char_traits@G@std@@V?$allocator@G@2@@0@ABV10@G@Z=?decorated540@@YGXXZ @540
??Hstd@@YA?AV?$basic_string@GU?$char_traits@G@std@@V?$allocator@G@2@@0@ABV10@PBG@Z=?decorated541@@YGXXZ @541
??Hstd@@YA?AV?$basic_string@GU?$char_traits@G@std@@V?$allocator@G@2@@0@GABV10@@Z=?decorated542@@YGXXZ @542
??Hstd@@YA?AV?$basic_string@GU?$char_traits@G@std@@V?$allocator@G@2@@0@PBGABV10@@Z=?decorated543@@YGXXZ @543
??Hstd@@YA?AV?$complex@M@0@ABMABV10@@Z=?decorated544@@YGXXZ @544
??Hstd@@YA?AV?$complex@M@0@ABV10@0@Z=?decorated545@@YGXXZ @545
??Hstd@@YA?AV?$complex@M@0@ABV10@@Z=?decorated546@@YGXXZ @546
??Hstd@@YA?AV?$complex@M@0@ABV10@ABM@Z=?decorated547@@YGXXZ @547
??Hstd@@YA?AV?$complex@N@0@ABNABV10@@Z=?decorated548@@YGXXZ @548
??Hstd@@YA?AV?$complex@N@0@ABV10@0@Z=?decorated549@@YGXXZ @549
??Hstd@@YA?AV?$complex@N@0@ABV10@@Z=?decorated550@@YGXXZ @550
??Hstd@@YA?AV?$complex@N@0@ABV10@ABN@Z=?decorated551@@YGXXZ @551
??Hstd@@YA?AV?$complex@O@0@ABOABV10@@Z=?decorated552@@YGXXZ @552
??Hstd@@YA?AV?$complex@O@0@ABV10@0@Z=?decorated553@@YGXXZ @553
??Hstd@@YA?AV?$complex@O@0@ABV10@@Z=?decorated554@@YGXXZ @554
??Hstd@@YA?AV?$complex@O@0@ABV10@ABO@Z=?decorated555@@YGXXZ @555
??Kstd@@YA?AV?$complex@M@0@ABMABV10@@Z=?decorated556@@YGXXZ @556
??Kstd@@YA?AV?$complex@M@0@ABV10@0@Z=?decorated557@@YGXXZ @557
??Kstd@@YA?AV?$complex@M@0@ABV10@ABM@Z=?decorated558@@YGXXZ @558
??Kstd@@YA?AV?$complex@N@0@ABNABV10@@Z=?decorated559@@YGXXZ @559
??Kstd@@YA?AV?$complex@N@0@ABV10@0@Z=?decorated560@@YGXXZ @560
??Kstd@@YA?AV?$complex@N@0@ABV10@ABN@Z=?decorated561@@YGXXZ @561
??Kstd@@YA?AV?$complex@O@0@ABOABV10@@Z=?decorated562@@YGXXZ @562
??Kstd@@YA?AV?$complex@O@0@ABV10@0@Z=?decorated563@@YGXXZ @563
??Kstd@@YA?AV?$complex@O@0@ABV10@ABO@Z=?decorated564@@YGXXZ @564
??Mstd@@YA_NABV?$basic_string@DU?$char_traits@D@std@@V?$allocator@D@2@@0@0@Z=?decorated565@@YGXXZ @565
??Mstd@@YA_NABV?$basic_string@DU?$char_traits@D@std@@V?$allocator@D@2@@0@PBD@Z=?decorated566@@YGXXZ @566
??Mstd@@YA_NABV?$basic_string@GU?$char_traits@G@std@@V?$allocator@G@2@@0@0@Z=?decorated567@@YGXXZ @567
??Mstd@@YA_NABV?$basic_string@GU?$char_traits@G@std@@V?$allocator@G@2@@0@PBG@Z=?decorated568@@YGXXZ @568
??Mstd@@YA_NPBDABV?$basic_string@DU?$char_traits@D@std@@V?$allocator@D@2@@0@@Z=?decorated569@@YGXXZ @569
??Mstd@@YA_NPBGABV?$basic_string@GU?$char_traits@G@std@@V?$allocator@G@2@@0@@Z=?decorated570@@YGXXZ @570
??Nstd@@YA_NABV?$basic_string@DU?$char_traits@D@std@@V?$allocator@D@2@@0@0@Z=?decorated571@@YGXXZ @571
??Nstd@@YA_NABV?$basic_string@DU?$char_traits@D@std@@V?$allocator@D@2@@0@PBD@Z=?decorated572@@YGXXZ @572
??Nstd@@YA_NABV?$basic_string@GU?$char_traits@G@std@@V?$allocator@G@2@@0@0@Z=?decorated573@@YGXXZ @573
??Nstd@@YA_NABV?$basic_string@GU?$char_traits@G@std@@V?$allocator@G@2@@0@PBG@Z=?decorated574@@YGXXZ @574
??Nstd@@YA_NPBDABV?$basic_string@DU?$char_traits@D@std@@V?$allocator@D@2@@0@@Z=?decorated575@@YGXXZ @575
??Nstd@@YA_NPBGABV?$basic_string@GU?$char_traits@G@std@@V?$allocator@G@2@@0@@Z=?decorated576@@YGXXZ @576
??Ostd@@YA_NABV?$basic_string@DU?$char_traits@D@std@@V?$allocator@D@2@@0@0@Z=?decorated577@@YGXXZ @577
??Ostd@@YA_NABV?$basic_string@DU?$char_traits@D@std@@V?$allocator@D@2@@0@PBD@Z=?decorated578@@YGXXZ @578
??Ostd@@YA_NABV?$basic_string@GU?$char_traits@G@std@@V?$allocator@G@2@@0@0@Z=?decorated579@@YGXXZ @579
??Ostd@@YA_NABV?$basic_string@GU?$char_traits@G@std@@V?$allocator@G@2@@0@PBG@Z=?decorated580@@YGXXZ @580
??Ostd@@YA_NPBDABV?$basic_string@DU?$char_traits@D@std@@V?$allocator@D@2@@0@@Z=?decorated581@@YGXXZ @581
??Ostd@@YA_NPBGABV?$basic_string@GU?$char_traits@G@std@@V?$allocator@G@2@@0@@Z=?decorated582@@YGXXZ @582
??Pstd@@YA_NABV?$basic_string@DU?$char_traits@D@std@@V?$allocator@D@2@@0@0@Z=?decorated583@@YGXXZ @583
??Pstd@@YA_NABV?$basic_string@DU?$char_traits@D@std@@V?$allocator@D@2@@0@PBD@Z=?decorated584@@YGXXZ @584
??Pstd@@YA_NABV?$basic_string@GU?$char_traits@G@std@@V?$allocator@G@2@@0@0@Z=?decorated585@@YGXXZ @585
??Pstd@@YA_NABV?$basic_string@GU?$char_traits@G@std@@V?$allocator@G@2@@0@PBG@Z=?decorated586@@YGXXZ @586
??Pstd@@YA_NPBDABV?$basic_string@DU?$char_traits@D@std@@V?$allocator@D@2@@0@@Z=?decorated587@@YGXXZ @587
??Pstd@@YA_NPBGABV?$basic_string@GU?$char_traits@G@std@@V?$allocator@G@2@@0@@Z=?decorated588@@YGXXZ @588
??Rlocale@std@@QBE_NABV?$basic_string@DU?$char_traits@D@std@@V?$allocator@D@2@@1@0@Z=?decorated589@@YGXXZ @589
??X?$_Complex_base@M@std@@QAEAAV01@ABM@Z=?decorated590@@YGXXZ @590
??X?$_Complex_base@N@std@@QAEAAV01@ABN@Z=?decorated591@@YGXXZ @591
??X?$_Complex_base@O@std@@QAEAAV01@ABO@Z=?decorated592@@YGXXZ @592
??Xstd@@YAAAV?$complex@M@0@AAV10@ABV10@@Z=?decorated593@@YGXXZ @593
??Xstd@@YAAAV?$complex@N@0@AAV10@ABV10@@Z=?decorated594@@YGXXZ @594
??Xstd@@YAAAV?$complex@O@0@AAV10@ABV10@@Z=?decorated595@@YGXXZ @595
??Y?$_Complex_base@M@std@@QAEAAV01@ABM@Z=?decorated596@@YGXXZ @596
??Y?$_Complex_base@N@std@@QAEAAV01@ABN@Z=?decorated597@@YGXXZ @597
??Y?$_Complex_base@O@std@@QAEAAV01@ABO@Z=?decorated598@@YGXXZ @598
??Y?$basic_string@DU?$char_traits@D@std@@V?$allocator@D@2@@std@@QAEAAV01@ABV01@@Z=?decorated599@@YGXXZ @599
??Y?$basic_string@DU?$char_traits@D@std@@V?$allocator@D@2@@std@@QAEAAV01@D@Z=?decorated600@@YGXXZ @600
??Y?$basic_string@DU?$char_traits@D@std@@V?$allocator@D@2@@std@@QAEAAV01@PBD@Z=?decorated601@@YGXXZ @601
??Y?$basic_string@GU?$char_traits@G@std@@V?$allocator@G@2@@std@@QAEAAV01@ABV01@@Z=?decorated602@@YGXXZ @602
??Y?$basic_string@GU?$char_traits@G@std@@V?$allocator@G@2@@std@@QAEAAV01@G@Z=?decorated603@@YGXXZ @603
??Y?$basic_string@GU?$char_traits@G@std@@V?$allocator@G@2@@std@@QAEAAV01@PBG@Z=?decorated604@@YGXXZ @604
??Ystd@@YAAAV?$complex@M@0@AAV10@ABV10@@Z=?decorated605@@YGXXZ @605
??Ystd@@YAAAV?$complex@N@0@AAV10@ABV10@@Z=?decorated606@@YGXXZ @606
??Ystd@@YAAAV?$complex@O@0@AAV10@ABV10@@Z=?decorated607@@YGXXZ @607
??Z?$_Complex_base@M@std@@QAEAAV01@ABM@Z=?decorated608@@YGXXZ @608
??Z?$_Complex_base@N@std@@QAEAAV01@ABN@Z=?decorated609@@YGXXZ @609
??Z?$_Complex_base@O@std@@QAEAAV01@ABO@Z=?decorated610@@YGXXZ @610
??Zstd@@YAAAV?$complex@M@0@AAV10@ABV10@@Z=?decorated611@@YGXXZ @611
??Zstd@@YAAAV?$complex@N@0@AAV10@ABV10@@Z=?decorated612@@YGXXZ @612
??Zstd@@YAAAV?$complex@O@0@AAV10@ABV10@@Z=?decorated613@@YGXXZ @613
?__Fiopen@std@@YAPAU_iobuf@@PBDH@Z=?decorated1032@@YGXXZ @1032
?_Addcats@_Locinfo@std@@QAEAAV12@HPBD@Z=?decorated811@@YGXXZ @811
?_Addfac@locale@std@@QAEAAV12@PAVfacet@12@II@Z=?decorated812@@YGXXZ @812
?_Addstd@ios_base@std@@IAEXXZ=?decorated813@@YGXXZ @813
?_C@?1??_Nullstr@?$basic_string@DU?$char_traits@D@std@@V?$allocator@D@2@@std@@CAPBDXZ@4DB=?decorated814@@YGXXZ @814
?_C@?1??_Nullstr@?$basic_string@GU?$char_traits@G@std@@V?$allocator@G@2@@std@@CAPBGXZ@4GB=?decorated815@@YGXXZ @815
?_Callfns@ios_base@std@@AAEXW4event@12@@Z=?decorated816@@YGXXZ @816
?_Cl@?5??log@std@@YA?AV?$complex@M@2@ABV32@@Z@4MB=?decorated817@@YGXXZ @817
?_Cl@?5??log@std@@YA?AV?$complex@N@2@ABV32@@Z@4NB=?decorated818@@YGXXZ @818
?_Cl@?5??log@std@@YA?AV?$complex@O@2@ABV32@@Z@4OB=?decorated819@@YGXXZ @819
?_Clocptr@_Locimp@locale@std@@0PAV123@A=?decorated820@@YGXXZ @820
?_Cltab@?$ctype@D@std@@0PBFB=?decorated821@@YGXXZ @821
?_Cm@?5??log@std@@YA?AV?$complex@M@2@ABV32@@Z@4MB=?decorated822@@YGXXZ @822
?_Cm@?5??log@std@@YA?AV?$complex@N@2@ABV32@@Z@4NB=?decorated823@@YGXXZ @823
?_Cm@?5??log@std@@YA?AV?$complex@O@2@ABV32@@Z@4OB=?decorated824@@YGXXZ @824
?_Copy@?$basic_string@DU?$char_traits@D@std@@V?$allocator@D@2@@std@@AAEXI@Z=?decorated825@@YGXXZ @825
?_Copy@?$basic_string@GU?$char_traits@G@std@@V?$allocator@G@2@@std@@AAEXI@Z=?decorated826@@YGXXZ @826
?_Cosh@?$_Ctr@M@std@@SAMMM@Z=?decorated827@@YGXXZ @827
?_Cosh@?$_Ctr@N@std@@SANNN@Z=?decorated828@@YGXXZ @828
?_Cosh@?$_Ctr@O@std@@SAOOO@Z=?decorated829@@YGXXZ @829
?_Decref@facet@locale@std@@QAEPAV123@XZ=?decorated830@@YGXXZ @830
?_Doraise@bad_alloc@std@@MBEXXZ=?decorated831@@YGXXZ @831
?_Doraise@bad_cast@std@@MBEXXZ=?decorated832@@YGXXZ @832
?_Doraise@bad_exception@std@@MBEXXZ=?decorated833@@YGXXZ @833
?_Doraise@bad_typeid@std@@MBEXXZ=?decorated834@@YGXXZ @834
?_Doraise@domain_error@std@@MBEXXZ=?decorated835@@YGXXZ @835
?_Doraise@length_error@std@@MBEXXZ=?decorated836@@YGXXZ @836
?_Doraise@logic_error@std@@MBEXXZ=?decorated837@@YGXXZ @837
?_Doraise@out_of_range@std@@MBEXXZ=?decorated838@@YGXXZ @838
?_Doraise@overflow_error@std@@MBEXXZ=?decorated839@@YGXXZ @839
?_Doraise@range_error@std@@MBEXXZ=?decorated840@@YGXXZ @840
?_Doraise@runtime_error@std@@MBEXXZ=?decorated841@@YGXXZ @841
?_Doraise@underflow_error@std@@MBEXXZ=?decorated842@@YGXXZ @842
?_Eos@?$basic_string@DU?$char_traits@D@std@@V?$allocator@D@2@@std@@AAEXI@Z=?decorated843@@YGXXZ @843
?_Eos@?$basic_string@GU?$char_traits@G@std@@V?$allocator@G@2@@std@@AAEXI@Z=?decorated844@@YGXXZ @844
?_Exp@?$_Ctr@M@std@@SAFPAMMF@Z=?decorated845@@YGXXZ @845
?_Exp@?$_Ctr@N@std@@SAFPANNF@Z=?decorated846@@YGXXZ @846
?_Exp@?$_Ctr@O@std@@SAFPAOOF@Z=?decorated847@@YGXXZ @847
?_Fabs@std@@YAMABV?$complex@M@1@PAH@Z=?decorated848@@YGXXZ @848
?_Fabs@std@@YANABV?$complex@N@1@PAH@Z=?decorated849@@YGXXZ @849
?_Fabs@std@@YAOABV?$complex@O@1@PAH@Z=?decorated850@@YGXXZ @850
?_Ffmt@?$num_put@DV?$ostreambuf_iterator@DU?$char_traits@D@std@@@std@@@std@@KAPADPADDH@Z=?decorated851@@YGXXZ @851
?_Ffmt@?$num_put@GV?$ostreambuf_iterator@GU?$char_traits@G@std@@@std@@@std@@KAPADPADDH@Z=?decorated852@@YGXXZ @852
?_Findarr@ios_base@std@@AAEAAU_Iosarray@12@H@Z=?decorated853@@YGXXZ @853
?_Fput@?$num_put@DV?$ostreambuf_iterator@DU?$char_traits@D@std@@@std@@@std@@KA?AV?$ostreambuf_iterator@DU?$char_traits@D@std@@@2@V32@AAVios_base@2@DPBDII@Z=?decorated854@@YGXXZ @854
?_Fput@?$num_put@GV?$ostreambuf_iterator@GU?$char_traits@G@std@@@std@@@std@@KA?AV?$ostreambuf_iterator@GU?$char_traits@G@std@@@2@V32@AAVios_base@2@GPBDII@Z=?decorated855@@YGXXZ @855
?_Fpz@std@@3_JB=?decorated856@@YGXXZ @856
?_Freeze@?$basic_string@DU?$char_traits@D@std@@V?$allocator@D@2@@std@@AAEXXZ=?decorated857@@YGXXZ @857
?_Freeze@?$basic_string@GU?$char_traits@G@std@@V?$allocator@G@2@@std@@AAEXXZ=?decorated858@@YGXXZ @858
?_Getcat@?$_Mpunct@D@std@@SAIXZ=?decorated859@@YGXXZ @859
?_Getcat@?$_Mpunct@G@std@@SAIXZ=?decorated860@@YGXXZ @860
?_Getcat@?$codecvt@DDH@std@@SAIXZ=?decorated861@@YGXXZ @861
?_Getcat@?$codecvt@GDH@std@@SAIXZ=?decorated862@@YGXXZ @862
?_Getcat@?$collate@D@std@@SAIXZ=?decorated863@@YGXXZ @863
?_Getcat@?$collate@G@std@@SAIXZ=?decorated864@@YGXXZ @864
?_Getcat@?$ctype@D@std@@SAIXZ=?decorated865@@YGXXZ @865
?_Getcat@?$ctype@G@std@@SAIXZ=?decorated866@@YGXXZ @866
?_Getcat@?$messages@D@std@@SAIXZ=?decorated867@@YGXXZ @867
?_Getcat@?$messages@G@std@@SAIXZ=?decorated868@@YGXXZ @868
?_Getcat@?$money_get@DV?$istreambuf_iterator@DU?$char_traits@D@std@@@std@@@std@@SAIXZ=?decorated869@@YGXXZ @869
?_Getcat@?$money_get@GV?$istreambuf_iterator@GU?$char_traits@G@std@@@std@@@std@@SAIXZ=?decorated870@@YGXXZ @870
?_Getcat@?$money_put@DV?$ostreambuf_iterator@DU?$char_traits@D@std@@@std@@@std@@SAIXZ=?decorated871@@YGXXZ @871
?_Getcat@?$money_put@GV?$ostreambuf_iterator@GU?$char_traits@G@std@@@std@@@std@@SAIXZ=?decorated872@@YGXXZ @872
?_Getcat@?$moneypunct@D$00@std@@SAIXZ=?decorated873@@YGXXZ @873
?_Getcat@?$moneypunct@D$0A@@std@@SAIXZ=?decorated874@@YGXXZ @874
?_Getcat@?$moneypunct@G$00@std@@SAIXZ=?decorated875@@YGXXZ @875
?_Getcat@?$moneypunct@G$0A@@std@@SAIXZ=?decorated876@@YGXXZ @876
?_Getcat@?$num_get@DV?$istreambuf_iterator@DU?$char_traits@D@std@@@std@@@std@@SAIXZ=?decorated877@@YGXXZ @877
?_Getcat@?$num_get@GV?$istreambuf_iterator@GU?$char_traits@G@std@@@std@@@std@@SAIXZ=?decorated878@@YGXXZ @878
?_Getcat@?$num_put@DV?$ostreambuf_iterator@DU?$char_traits@D@std@@@std@@@std@@SAIXZ=?decorated879@@YGXXZ @879
?_Getcat@?$num_put@GV?$ostreambuf_iterator@GU?$char_traits@G@std@@@std@@@std@@SAIXZ=?decorated880@@YGXXZ @880
?_Getcat@?$numpunct@D@std@@SAIXZ=?decorated881@@YGXXZ @881
?_Getcat@?$numpunct@G@std@@SAIXZ=?decorated882@@YGXXZ @882
?_Getcat@?$time_get@DV?$istreambuf_iterator@DU?$char_traits@D@std@@@std@@@std@@SAIXZ=?decorated883@@YGXXZ @883
?_Getcat@?$time_get@GV?$istreambuf_iterator@GU?$char_traits@G@std@@@std@@@std@@SAIXZ=?decorated884@@YGXXZ @884
?_Getcat@?$time_put@DV?$ostreambuf_iterator@DU?$char_traits@D@std@@@std@@@std@@SAIXZ=?decorated885@@YGXXZ @885
?_Getcat@?$time_put@GV?$ostreambuf_iterator@GU?$char_traits@G@std@@@std@@@std@@SAIXZ=?decorated886@@YGXXZ @886
?_Getcat@facet@locale@std@@SAIXZ=?decorated887@@YGXXZ @887
?_Getcoll@_Locinfo@std@@QBE?AU_Collvec@@XZ=?decorated888@@YGXXZ @888
?_Getctype@_Locinfo@std@@QBE?AU_Ctypevec@@XZ=?decorated889@@YGXXZ @889
?_Getcvt@_Locinfo@std@@QBE?AU_Cvtvec@@XZ=?decorated890@@YGXXZ @890
?_Getdays@_Locinfo@std@@QBEPBDXZ=?decorated891@@YGXXZ @891
?_Getfacet@locale@std@@QBEPBVfacet@12@I_N@Z=?decorated892@@YGXXZ @892
?_Getfalse@_Locinfo@std@@QBEPBDXZ=?decorated893@@YGXXZ @893
?_Getffld@?$num_get@DV?$istreambuf_iterator@DU?$char_traits@D@std@@@std@@@std@@CAHPADAAV?$istreambuf_iterator@DU?$char_traits@D@std@@@2@1ABVlocale@2@@Z=?decorated894@@YGXXZ @894
?_Getffld@?$num_get@GV?$istreambuf_iterator@GU?$char_traits@G@std@@@std@@@std@@CAHPADAAV?$istreambuf_iterator@GU?$char_traits@G@std@@@2@1ABVlocale@2@@Z=?decorated895@@YGXXZ @895
?_Getifld@?$num_get@DV?$istreambuf_iterator@DU?$char_traits@D@std@@@std@@@std@@CAHPADAAV?$istreambuf_iterator@DU?$char_traits@D@std@@@2@1HABVlocale@2@@Z=?decorated896@@YGXXZ @896
?_Getifld@?$num_get@GV?$istreambuf_iterator@GU?$char_traits@G@std@@@std@@@std@@CAHPADAAV?$istreambuf_iterator@GU?$char_traits@G@std@@@2@1HABVlocale@2@@Z=?decorated897@@YGXXZ @897
?_Getint@?$time_get@DV?$istreambuf_iterator@DU?$char_traits@D@std@@@std@@@std@@CAHAAV?$istreambuf_iterator@DU?$char_traits@D@std@@@2@0HHAAH@Z=?decorated898@@YGXXZ @898
?_Getint@?$time_get@GV?$istreambuf_iterator@GU?$char_traits@G@std@@@std@@@std@@CAHAAV?$istreambuf_iterator@GU?$char_traits@G@std@@@2@0HHAAH@Z=?decorated899@@YGXXZ @899
?_Getlconv@_Locinfo@std@@QBEPBUlconv@@XZ=?decorated900@@YGXXZ @900
?_Getmfld@?$money_get@DV?$istreambuf_iterator@DU?$char_traits@D@std@@@std@@@std@@ABE?AV?$basic_string@DU?$char_traits@D@std@@V?$allocator@D@2@@2@AAV?$istreambuf_iterator@DU?$char_traits@D@std@@@2@0_NAAVios_base@2@@Z=?decorated901@@YGXXZ @901
?_Getmfld@?$money_get@GV?$istreambuf_iterator@GU?$char_traits@G@std@@@std@@@std@@ABE?AV?$basic_string@GU?$char_traits@G@std@@V?$allocator@G@2@@2@AAV?$istreambuf_iterator@GU?$char_traits@G@std@@@2@0_NAAVios_base@2@@Z=?decorated902@@YGXXZ @902
?_Getmonths@_Locinfo@std@@QBEPBDXZ=?decorated903@@YGXXZ @903
?_Getname@_Locinfo@std@@QBE?AV?$basic_string@DU?$char_traits@D@std@@V?$allocator@D@2@@2@XZ=?decorated904@@YGXXZ @904
?_Getno@_Locinfo@std@@QBEPBDXZ=?decorated905@@YGXXZ @905
?_Getptr@_Timevec@std@@QBEPAXXZ=?decorated906@@YGXXZ @906
?_Gettnames@_Locinfo@std@@QBE?AV_Timevec@2@XZ=?decorated907@@YGXXZ @907
?_Gettrue@_Locinfo@std@@QBEPBDXZ=?decorated908@@YGXXZ @908
?_Getyes@_Locinfo@std@@QBEPBDXZ=?decorated909@@YGXXZ @909
?_Global@_Locimp@locale@std@@0PAV123@A=?decorated910@@YGXXZ @910
?_Gndec@?$basic_streambuf@DU?$char_traits@D@std@@@std@@IAEPADXZ=?decorated911@@YGXXZ @911
?_Gndec@?$basic_streambuf@GU?$char_traits@G@std@@@std@@IAEPAGXZ=?decorated912@@YGXXZ @912
?_Gninc@?$basic_streambuf@DU?$char_traits@D@std@@@std@@IAEPADXZ=?decorated913@@YGXXZ @913
?_Gninc@?$basic_streambuf@GU?$char_traits@G@std@@@std@@IAEPAGXZ=?decorated914@@YGXXZ @914
?_Grow@?$basic_string@DU?$char_traits@D@std@@V?$allocator@D@2@@std@@AAE_NI_N@Z=?decorated915@@YGXXZ @915
?_Grow@?$basic_string@GU?$char_traits@G@std@@V?$allocator@G@2@@std@@AAE_NI_N@Z=?decorated916@@YGXXZ @916
?_Id_cnt@id@locale@std@@0HA=?decorated917@@YGXXZ @917
?_Ifmt@?$num_put@DV?$ostreambuf_iterator@DU?$char_traits@D@std@@@std@@@std@@KAPADPADDH@Z=?decorated918@@YGXXZ @918
?_Ifmt@?$num_put@GV?$ostreambuf_iterator@GU?$char_traits@G@std@@@std@@@std@@KAPADPADDH@Z=?decorated919@@YGXXZ @919
?_Incref@facet@locale@std@@QAEXXZ=?decorated920@@YGXXZ @920
?_Index@ios_base@std@@0HA=?decorated921@@YGXXZ @921
?_Infv@?$_Ctr@M@std@@SAMM@Z=?decorated922@@YGXXZ @922
?_Infv@?$_Ctr@N@std@@SANN@Z=?decorated923@@YGXXZ @923
?_Infv@?$_Ctr@O@std@@SAOO@Z=?decorated924@@YGXXZ @924
?_Init@?$_Mpunct@D@std@@IAEXABV_Locinfo@2@@Z=?decorated925@@YGXXZ @925
?_Init@?$_Mpunct@G@std@@IAEXABV_Locinfo@2@@Z=?decorated926@@YGXXZ @926
?_Init@?$basic_filebuf@DU?$char_traits@D@std@@@std@@IAEXPAU_iobuf@@W4_Initfl@12@@Z=?decorated927@@YGXXZ @927
?_Init@?$basic_filebuf@GU?$char_traits@G@std@@@std@@IAEXPAU_iobuf@@W4_Initfl@12@@Z=?decorated928@@YGXXZ @928
?_Init@?$basic_streambuf@DU?$char_traits@D@std@@@std@@IAEXPAPAD0PAH001@Z=?decorated929@@YGXXZ @929
?_Init@?$basic_streambuf@DU?$char_traits@D@std@@@std@@IAEXXZ=?decorated930@@YGXXZ @930
?_Init@?$basic_streambuf@GU?$char_traits@G@std@@@std@@IAEXPAPAG0PAH001@Z=?decorated931@@YGXXZ @931
?_Init@?$basic_streambuf@GU?$char_traits@G@std@@@std@@IAEXXZ=?decorated932@@YGXXZ @932
?_Init@?$basic_stringbuf@DU?$char_traits@D@std@@V?$allocator@D@2@@std@@IAEXPBDIH@Z=?decorated933@@YGXXZ @933
?_Init@?$basic_stringbuf@GU?$char_traits@G@std@@V?$allocator@G@2@@std@@IAEXPBGIH@Z=?decorated934@@YGXXZ @934
?_Init@?$codecvt@DDH@std@@IAEXABV_Locinfo@2@@Z=?decorated935@@YGXXZ @935
?_Init@?$codecvt@GDH@std@@IAEXABV_Locinfo@2@@Z=?decorated936@@YGXXZ @936
?_Init@?$collate@D@std@@IAEXABV_Locinfo@2@@Z=?decorated937@@YGXXZ @937
?_Init@?$collate@G@std@@IAEXABV_Locinfo@2@@Z=?decorated938@@YGXXZ @938
?_Init@?$ctype@D@std@@IAEXABV_Locinfo@2@@Z=?decorated939@@YGXXZ @939
?_Init@?$ctype@G@std@@IAEXABV_Locinfo@2@@Z=?decorated940@@YGXXZ @940
?_Init@?$messages@D@std@@IAEXABV_Locinfo@2@@Z=?decorated941@@YGXXZ @941
?_Init@?$messages@G@std@@IAEXABV_Locinfo@2@@Z=?decorated942@@YGXXZ @942
?_Init@?$money_get@DV?$istreambuf_iterator@DU?$char_traits@D@std@@@std@@@std@@IAEXABV_Locinfo@2@@Z=?decorated943@@YGXXZ @943
?_Init@?$money_get@GV?$istreambuf_iterator@GU?$char_traits@G@std@@@std@@@std@@IAEXABV_Locinfo@2@@Z=?decorated944@@YGXXZ @944
?_Init@?$money_put@DV?$ostreambuf_iterator@DU?$char_traits@D@std@@@std@@@std@@IAEXABV_Locinfo@2@@Z=?decorated945@@YGXXZ @945
?_Init@?$money_put@GV?$ostreambuf_iterator@GU?$char_traits@G@std@@@std@@@std@@IAEXABV_Locinfo@2@@Z=?decorated946@@YGXXZ @946
?_Init@?$num_get@DV?$istreambuf_iterator@DU?$char_traits@D@std@@@std@@@std@@IAEXABV_Locinfo@2@@Z=?decorated947@@YGXXZ @947
?_Init@?$num_get@GV?$istreambuf_iterator@GU?$char_traits@G@std@@@std@@@std@@IAEXABV_Locinfo@2@@Z=?decorated948@@YGXXZ @948
?_Init@?$num_put@DV?$ostreambuf_iterator@DU?$char_traits@D@std@@@std@@@std@@IAEXABV_Locinfo@2@@Z=?decorated949@@YGXXZ @949
?_Init@?$num_put@GV?$ostreambuf_iterator@GU?$char_traits@G@std@@@std@@@std@@IAEXABV_Locinfo@2@@Z=?decorated950@@YGXXZ @950
?_Init@?$numpunct@D@std@@IAEXABV_Locinfo@2@@Z=?decorated951@@YGXXZ @951
?_Init@?$numpunct@G@std@@IAEXABV_Locinfo@2@@Z=?decorated952@@YGXXZ @952
?_Init@?$time_get@DV?$istreambuf_iterator@DU?$char_traits@D@std@@@std@@@std@@IAEXABV_Locinfo@2@@Z=?decorated953@@YGXXZ @953
?_Init@?$time_get@GV?$istreambuf_iterator@GU?$char_traits@G@std@@@std@@@std@@IAEXABV_Locinfo@2@@Z=?decorated954@@YGXXZ @954
?_Init@?$time_put@DV?$ostreambuf_iterator@DU?$char_traits@D@std@@@std@@@std@@IAEXABV_Locinfo@2@@Z=?decorated955@@YGXXZ @955
?_Init@?$time_put@GV?$ostreambuf_iterator@GU?$char_traits@G@std@@@std@@@std@@IAEXABV_Locinfo@2@@Z=?decorated956@@YGXXZ @956
?_Init@ios_base@std@@IAEXXZ=?decorated957@@YGXXZ @957
?_Init@locale@std@@CAPAV_Locimp@12@XZ=?decorated958@@YGXXZ @958
?_Init@strstreambuf@std@@IAEXHPAD0H@Z=?decorated959@@YGXXZ @959
?_Init_cnt@_Winit@std@@0HA=?decorated961@@YGXXZ @961
?_Init_cnt@Init@ios_base@std@@0HA=?decorated960@@YGXXZ @960
?_Initcvt@?$basic_filebuf@DU?$char_traits@D@std@@@std@@IAEXXZ=?decorated962@@YGXXZ @962
?_Initcvt@?$basic_filebuf@GU?$char_traits@G@std@@@std@@IAEXXZ=?decorated963@@YGXXZ @963
?_Iput@?$num_put@DV?$ostreambuf_iterator@DU?$char_traits@D@std@@@std@@@std@@KA?AV?$ostreambuf_iterator@DU?$char_traits@D@std@@@2@V32@AAVios_base@2@DPADI@Z=?decorated964@@YGXXZ @964
?_Iput@?$num_put@GV?$ostreambuf_iterator@GU?$char_traits@G@std@@@std@@@std@@KA?AV?$ostreambuf_iterator@GU?$char_traits@G@std@@@2@V32@AAVios_base@2@GPADI@Z=?decorated965@@YGXXZ @965
?_Iscloc@locale@std@@QBE_NXZ=?decorated966@@YGXXZ @966
?_Isinf@?$_Ctr@M@std@@SA_NM@Z=?decorated967@@YGXXZ @967
?_Isinf@?$_Ctr@N@std@@SA_NN@Z=?decorated968@@YGXXZ @968
?_Isinf@?$_Ctr@O@std@@SA_NO@Z=?decorated969@@YGXXZ @969
?_Isnan@?$_Ctr@M@std@@SA_NM@Z=?decorated970@@YGXXZ @970
?_Isnan@?$_Ctr@N@std@@SA_NN@Z=?decorated971@@YGXXZ @971
?_Isnan@?$_Ctr@O@std@@SA_NO@Z=?decorated972@@YGXXZ @972
?_Makpat@?$_Mpunct@D@std@@AAEXAAUpattern@money_base@2@DDD@Z=?decorated973@@YGXXZ @973
?_Makpat@?$_Mpunct@G@std@@AAEXAAUpattern@money_base@2@DDD@Z=?decorated974@@YGXXZ @974
?_Mode@?$basic_stringbuf@DU?$char_traits@D@std@@V?$allocator@D@2@@std@@AAEHH@Z=?decorated975@@YGXXZ @975
?_Mode@?$basic_stringbuf@GU?$char_traits@G@std@@V?$allocator@G@2@@std@@AAEHH@Z=?decorated976@@YGXXZ @976
?_Nanv@?$_Ctr@M@std@@SAMM@Z=?decorated977@@YGXXZ @977
?_Nanv@?$_Ctr@N@std@@SANN@Z=?decorated978@@YGXXZ @978
?_Nanv@?$_Ctr@O@std@@SAOO@Z=?decorated979@@YGXXZ @979
?_Nomemory@std@@YAXXZ=?decorated980@@YGXXZ @980
?_Nullstr@?$basic_string@DU?$char_traits@D@std@@V?$allocator@D@2@@std@@CAPBDXZ=?decorated981@@YGXXZ @981
?_Nullstr@?$basic_string@GU?$char_traits@G@std@@V?$allocator@G@2@@std@@CAPBGXZ=?decorated982@@YGXXZ @982
?_Pdif@?$basic_string@DU?$char_traits@D@std@@V?$allocator@D@2@@std@@CAIPBD0@Z=?decorated983@@YGXXZ @983
?_Pdif@?$basic_string@GU?$char_traits@G@std@@V?$allocator@G@2@@std@@CAIPBG0@Z=?decorated984@@YGXXZ @984
?_Pninc@?$basic_streambuf@DU?$char_traits@D@std@@@std@@IAEPADXZ=?decorated985@@YGXXZ @985
?_Pninc@?$basic_streambuf@GU?$char_traits@G@std@@@std@@IAEPAGXZ=?decorated986@@YGXXZ @986
?_Psum@?$basic_string@DU?$char_traits@D@std@@V?$allocator@D@2@@std@@CAPADPADI@Z=?decorated987@@YGXXZ @987
?_Psum@?$basic_string@DU?$char_traits@D@std@@V?$allocator@D@2@@std@@CAPBDPBDI@Z=?decorated988@@YGXXZ @988
?_Psum@?$basic_string@GU?$char_traits@G@std@@V?$allocator@G@2@@std@@CAPAGPAGI@Z=?decorated989@@YGXXZ @989
?_Psum@?$basic_string@GU?$char_traits@G@std@@V?$allocator@G@2@@std@@CAPBGPBGI@Z=?decorated990@@YGXXZ @990
?_Put@?$money_put@DV?$ostreambuf_iterator@DU?$char_traits@D@std@@@std@@@std@@CA?AV?$ostreambuf_iterator@DU?$char_traits@D@std@@@2@V32@PBDI@Z=?decorated991@@YGXXZ @991
?_Put@?$money_put@GV?$ostreambuf_iterator@GU?$char_traits@G@std@@@std@@@std@@CA?AV?$ostreambuf_iterator@GU?$char_traits@G@std@@@2@V32@PBGI@Z=?decorated992@@YGXXZ @992
?_Put@?$num_put@DV?$ostreambuf_iterator@DU?$char_traits@D@std@@@std@@@std@@KA?AV?$ostreambuf_iterator@DU?$char_traits@D@std@@@2@V32@PBDI@Z=?decorated993@@YGXXZ @993
?_Put@?$num_put@GV?$ostreambuf_iterator@GU?$char_traits@G@std@@@std@@@std@@KA?AV?$ostreambuf_iterator@GU?$char_traits@G@std@@@2@V32@PBGI@Z=?decorated994@@YGXXZ @994
?_Putc@?$num_put@DV?$ostreambuf_iterator@DU?$char_traits@D@std@@@std@@@std@@KA?AV?$ostreambuf_iterator@DU?$char_traits@D@std@@@2@V32@PBDI@Z=?decorated995@@YGXXZ @995
?_Putc@?$num_put@GV?$ostreambuf_iterator@GU?$char_traits@G@std@@@std@@@std@@KA?AV?$ostreambuf_iterator@GU?$char_traits@G@std@@@2@V32@PBDI@Z=?decorated996@@YGXXZ @996
?_Putmfld@?$money_put@DV?$ostreambuf_iterator@DU?$char_traits@D@std@@@std@@@std@@ABE?AV?$ostreambuf_iterator@DU?$char_traits@D@std@@@2@V32@_NAAVios_base@2@D1V?$basic_string@DU?$char_traits@D@std@@V?$allocator@D@2@@2@@Z=?decorated997@@YGXXZ @997
?_Putmfld@?$money_put@GV?$ostreambuf_iterator@GU?$char_traits@G@std@@@std@@@std@@ABE?AV?$ostreambuf_iterator@GU?$char_traits@G@std@@@2@V32@_NAAVios_base@2@G1V?$basic_string@GU?$char_traits@G@std@@V?$allocator@G@2@@2@@Z=?decorated998@@YGXXZ @998
?_R2@?BN@??_Fabs@std@@YAMABV?$complex@M@2@PAH@Z@4MB=?decorated999@@YGXXZ @999
?_R2@?BN@??_Fabs@std@@YANABV?$complex@N@2@PAH@Z@4NB=?decorated1000@@YGXXZ @1000
?_R2@?BN@??_Fabs@std@@YAOABV?$complex@O@2@PAH@Z@4OB=?decorated1001@@YGXXZ @1001
?_Refcnt@?$basic_string@DU?$char_traits@D@std@@V?$allocator@D@2@@std@@AAEAAEPBD@Z=?decorated1002@@YGXXZ @1002
?_Refcnt@?$basic_string@GU?$char_traits@G@std@@V?$allocator@G@2@@std@@AAEAAEPBG@Z=?decorated1003@@YGXXZ @1003
?_Rep@?$money_put@DV?$ostreambuf_iterator@DU?$char_traits@D@std@@@std@@@std@@CA?AV?$ostreambuf_iterator@DU?$char_traits@D@std@@@2@V32@DI@Z=?decorated1004@@YGXXZ @1004
?_Rep@?$money_put@GV?$ostreambuf_iterator@GU?$char_traits@G@std@@@std@@@std@@CA?AV?$ostreambuf_iterator@GU?$char_traits@G@std@@@2@V32@GI@Z=?decorated1005@@YGXXZ @1005
?_Rep@?$num_put@DV?$ostreambuf_iterator@DU?$char_traits@D@std@@@std@@@std@@KA?AV?$ostreambuf_iterator@DU?$char_traits@D@std@@@2@V32@DI@Z=?decorated1006@@YGXXZ @1006
?_Rep@?$num_put@GV?$ostreambuf_iterator@GU?$char_traits@G@std@@@std@@@std@@KA?AV?$ostreambuf_iterator@GU?$char_traits@G@std@@@2@V32@GI@Z=?decorated1007@@YGXXZ @1007
?_Sinh@?$_Ctr@M@std@@SAMMM@Z=?decorated1008@@YGXXZ @1008
?_Sinh@?$_Ctr@N@std@@SANNN@Z=?decorated1009@@YGXXZ @1009
?_Sinh@?$_Ctr@O@std@@SAOOO@Z=?decorated1010@@YGXXZ @1010
?_Split@?$basic_string@DU?$char_traits@D@std@@V?$allocator@D@2@@std@@AAEXXZ=?decorated1011@@YGXXZ @1011
?_Split@?$basic_string@GU?$char_traits@G@std@@V?$allocator@G@2@@std@@AAEXXZ=?decorated1012@@YGXXZ @1012
?_Stinit@?1??_Init@?$basic_filebuf@DU?$char_traits@D@std@@@std@@IAEXPAU_iobuf@@W4_Initfl@23@@Z@4HA=?decorated1013@@YGXXZ @1013
?_Stinit@?1??_Init@?$basic_filebuf@GU?$char_traits@G@std@@@std@@IAEXPAU_iobuf@@W4_Initfl@23@@Z@4HA=?decorated1014@@YGXXZ @1014
?_Sync@ios_base@std@@0_NA=?decorated1015@@YGXXZ @1015
?_Term@?$ctype@D@std@@KAXXZ=?decorated1016@@YGXXZ @1016
?_Tidy@?$basic_string@DU?$char_traits@D@std@@V?$allocator@D@2@@std@@AAEX_N@Z=?decorated1017@@YGXXZ @1017
?_Tidy@?$basic_string@GU?$char_traits@G@std@@V?$allocator@G@2@@std@@AAEX_N@Z=?decorated1018@@YGXXZ @1018
?_Tidy@?$basic_stringbuf@DU?$char_traits@D@std@@V?$allocator@D@2@@std@@IAEXXZ=?decorated1019@@YGXXZ @1019
?_Tidy@?$basic_stringbuf@GU?$char_traits@G@std@@V?$allocator@G@2@@std@@IAEXXZ=?decorated1020@@YGXXZ @1020
?_Tidy@ios_base@std@@AAEXXZ=?decorated1021@@YGXXZ @1021
?_Tidy@locale@std@@CAXXZ=?decorated1022@@YGXXZ @1022
?_Tidy@strstreambuf@std@@IAEXXZ=?decorated1023@@YGXXZ @1023
?_Xh@?BN@??_Fabs@std@@YAMABV?$complex@M@2@PAH@Z@4MB=?decorated1024@@YGXXZ @1024
?_Xh@?BN@??_Fabs@std@@YANABV?$complex@N@2@PAH@Z@4NB=?decorated1025@@YGXXZ @1025
?_Xh@?BN@??_Fabs@std@@YAOABV?$complex@O@2@PAH@Z@4OB=?decorated1026@@YGXXZ @1026
?_Xl@?BN@??_Fabs@std@@YAMABV?$complex@M@2@PAH@Z@4MB=?decorated1027@@YGXXZ @1027
?_Xl@?BN@??_Fabs@std@@YANABV?$complex@N@2@PAH@Z@4NB=?decorated1028@@YGXXZ @1028
?_Xl@?BN@??_Fabs@std@@YAOABV?$complex@O@2@PAH@Z@4OB=?decorated1029@@YGXXZ @1029
?_Xlen@std@@YAXXZ=?decorated1030@@YGXXZ @1030
?_Xran@std@@YAXXZ=?decorated1031@@YGXXZ @1031
?abs@std@@YAMABV?$complex@M@1@@Z=?decorated1033@@YGXXZ @1033
?abs@std@@YANABV?$complex@N@1@@Z=?decorated1034@@YGXXZ @1034
?abs@std@@YAOABV?$complex@O@1@@Z=?decorated1035@@YGXXZ @1035
?always_noconv@codecvt_base@std@@QBE_NXZ=?decorated1036@@YGXXZ @1036
?append@?$basic_string@DU?$char_traits@D@std@@V?$allocator@D@2@@std@@QAEAAV12@ABV12@@Z=?decorated1037@@YGXXZ @1037
?append@?$basic_string@DU?$char_traits@D@std@@V?$allocator@D@2@@std@@QAEAAV12@ABV12@II@Z=?decorated1038@@YGXXZ @1038
?append@?$basic_string@DU?$char_traits@D@std@@V?$allocator@D@2@@std@@QAEAAV12@ID@Z=?decorated1039@@YGXXZ @1039
?append@?$basic_string@DU?$char_traits@D@std@@V?$allocator@D@2@@std@@QAEAAV12@PBD0@Z=?decorated1040@@YGXXZ @1040
?append@?$basic_string@DU?$char_traits@D@std@@V?$allocator@D@2@@std@@QAEAAV12@PBD@Z=?decorated1041@@YGXXZ @1041
?append@?$basic_string@DU?$char_traits@D@std@@V?$allocator@D@2@@std@@QAEAAV12@PBDI@Z=?decorated1042@@YGXXZ @1042
?append@?$basic_string@GU?$char_traits@G@std@@V?$allocator@G@2@@std@@QAEAAV12@ABV12@@Z=?decorated1043@@YGXXZ @1043
?append@?$basic_string@GU?$char_traits@G@std@@V?$allocator@G@2@@std@@QAEAAV12@ABV12@II@Z=?decorated1044@@YGXXZ @1044
?append@?$basic_string@GU?$char_traits@G@std@@V?$allocator@G@2@@std@@QAEAAV12@IG@Z=?decorated1045@@YGXXZ @1045
?append@?$basic_string@GU?$char_traits@G@std@@V?$allocator@G@2@@std@@QAEAAV12@PBG0@Z=?decorated1046@@YGXXZ @1046
?append@?$basic_string@GU?$char_traits@G@std@@V?$allocator@G@2@@std@@QAEAAV12@PBG@Z=?decorated1047@@YGXXZ @1047
?append@?$basic_string@GU?$char_traits@G@std@@V?$allocator@G@2@@std@@QAEAAV12@PBGI@Z=?decorated1048@@YGXXZ @1048
?arg@std@@YAMABV?$complex@M@1@@Z=?decorated1049@@YGXXZ @1049
?arg@std@@YANABV?$complex@N@1@@Z=?decorated1050@@YGXXZ @1050
?arg@std@@YAOABV?$complex@O@1@@Z=?decorated1051@@YGXXZ @1051
?assign@?$basic_string@DU?$char_traits@D@std@@V?$allocator@D@2@@std@@QAEAAV12@ABV12@@Z=?decorated1052@@YGXXZ @1052
?assign@?$basic_string@DU?$char_traits@D@std@@V?$allocator@D@2@@std@@QAEAAV12@ABV12@II@Z=?decorated1053@@YGXXZ @1053
?assign@?$basic_string@DU?$char_traits@D@std@@V?$allocator@D@2@@std@@QAEAAV12@ID@Z=?decorated1054@@YGXXZ @1054
?assign@?$basic_string@DU?$char_traits@D@std@@V?$allocator@D@2@@std@@QAEAAV12@PBD0@Z=?decorated1055@@YGXXZ @1055
?assign@?$basic_string@DU?$char_traits@D@std@@V?$allocator@D@2@@std@@QAEAAV12@PBD@Z=?decorated1056@@YGXXZ @1056
?assign@?$basic_string@DU?$char_traits@D@std@@V?$allocator@D@2@@std@@QAEAAV12@PBDI@Z=?decorated1057@@YGXXZ @1057
?assign@?$basic_string@GU?$char_traits@G@std@@V?$allocator@G@2@@std@@QAEAAV12@ABV12@@Z=?decorated1058@@YGXXZ @1058
?assign@?$basic_string@GU?$char_traits@G@std@@V?$allocator@G@2@@std@@QAEAAV12@ABV12@II@Z=?decorated1059@@YGXXZ @1059
?assign@?$basic_string@GU?$char_traits@G@std@@V?$allocator@G@2@@std@@QAEAAV12@IG@Z=?decorated1060@@YGXXZ @1060
?assign@?$basic_string@GU?$char_traits@G@std@@V?$allocator@G@2@@std@@QAEAAV12@PBG0@Z=?decorated1061@@YGXXZ @1061
?assign@?$basic_string@GU?$char_traits@G@std@@V?$allocator@G@2@@std@@QAEAAV12@PBG@Z=?decorated1062@@YGXXZ @1062
?assign@?$basic_string@GU?$char_traits@G@std@@V?$allocator@G@2@@std@@QAEAAV12@PBGI@Z=?decorated1063@@YGXXZ @1063
?assign@?$char_traits@D@std@@SAPADPADIABD@Z=?decorated1064@@YGXXZ @1064
?assign@?$char_traits@D@std@@SAXAADABD@Z=?decorated1065@@YGXXZ @1065
?assign@?$char_traits@G@std@@SAPAGPAGIABG@Z=?decorated1066@@YGXXZ @1066
?assign@?$char_traits@G@std@@SAXAAGABG@Z=?decorated1067@@YGXXZ @1067
?at@?$basic_string@DU?$char_traits@D@std@@V?$allocator@D@2@@std@@QAEAADI@Z=?decorated1068@@YGXXZ @1068
?at@?$basic_string@DU?$char_traits@D@std@@V?$allocator@D@2@@std@@QBEABDI@Z=?decorated1069@@YGXXZ @1069
?at@?$basic_string@GU?$char_traits@G@std@@V?$allocator@G@2@@std@@QAEAAGI@Z=?decorated1070@@YGXXZ @1070
?at@?$basic_string@GU?$char_traits@G@std@@V?$allocator@G@2@@std@@QBEABGI@Z=?decorated1071@@YGXXZ @1071
?atan2@?$_Ctr@M@std@@SAMMM@Z=?decorated1072@@YGXXZ @1072
?atan2@?$_Ctr@N@std@@SANNN@Z=?decorated1073@@YGXXZ @1073
?atan2@?$_Ctr@O@std@@SAOOO@Z=?decorated1074@@YGXXZ @1074
?bad@ios_base@std@@QBE_NXZ=?decorated1075@@YGXXZ @1075
?begin@?$basic_string@DU?$char_traits@D@std@@V?$allocator@D@2@@std@@QAEPADXZ=?decorated1076@@YGXXZ @1076
?begin@?$basic_string@DU?$char_traits@D@std@@V?$allocator@D@2@@std@@QBEPBDXZ=?decorated1077@@YGXXZ @1077
?begin@?$basic_string@GU?$char_traits@G@std@@V?$allocator@G@2@@std@@QAEPAGXZ=?decorated1078@@YGXXZ @1078
?begin@?$basic_string@GU?$char_traits@G@std@@V?$allocator@G@2@@std@@QBEPBGXZ=?decorated1079@@YGXXZ @1079
?c_str@?$basic_string@DU?$char_traits@D@std@@V?$allocator@D@2@@std@@QBEPBDXZ=?decorated1080@@YGXXZ @1080
?c_str@?$basic_string@GU?$char_traits@G@std@@V?$allocator@G@2@@std@@QBEPBGXZ=?decorated1081@@YGXXZ @1081
?capacity@?$basic_string@DU?$char_traits@D@std@@V?$allocator@D@2@@std@@QBEIXZ=?decorated1082@@YGXXZ @1082
?capacity@?$basic_string@GU?$char_traits@G@std@@V?$allocator@G@2@@std@@QBEIXZ=?decorated1083@@YGXXZ @1083
?cerr@std@@3V?$basic_ostream@DU?$char_traits@D@std@@@1@A=?decorated1084@@YGXXZ @1084
?cin@std@@3V?$basic_istream@DU?$char_traits@D@std@@@1@A=?decorated1085@@YGXXZ @1085
?classic@locale@std@@SAABV12@XZ=?decorated1086@@YGXXZ @1086
?classic_table@?$ctype@D@std@@KAPBFXZ=?decorated1087@@YGXXZ @1087
?clear@?$basic_ios@DU?$char_traits@D@std@@@std@@QAEXF@Z=?decorated1088@@YGXXZ @1088
?clear@?$basic_ios@DU?$char_traits@D@std@@@std@@QAEXH_N@Z=?decorated1089@@YGXXZ @1089
?clear@?$basic_ios@GU?$char_traits@G@std@@@std@@QAEXF@Z=?decorated1090@@YGXXZ @1090
?clear@?$basic_ios@GU?$char_traits@G@std@@@std@@QAEXH_N@Z=?decorated1091@@YGXXZ @1091
?clear@ios_base@std@@QAEXF@Z=?decorated1092@@YGXXZ @1092
?clear@ios_base@std@@QAEXH_N@Z=?decorated1093@@YGXXZ @1093
?clog@std@@3V?$basic_ostream@DU?$char_traits@D@std@@@1@A=?decorated1094@@YGXXZ @1094
?close@?$basic_filebuf@DU?$char_traits@D@std@@@std@@QAEPAV12@XZ=?decorated1095@@YGXXZ @1095
?close@?$basic_filebuf@GU?$char_traits@G@std@@@std@@QAEPAV12@XZ=?decorated1096@@YGXXZ @1096
?close@?$basic_fstream@DU?$char_traits@D@std@@@std@@QAEXXZ=?decorated1097@@YGXXZ @1097
?close@?$basic_fstream@GU?$char_traits@G@std@@@std@@QAEXXZ=?decorated1098@@YGXXZ @1098
?close@?$basic_ifstream@DU?$char_traits@D@std@@@std@@QAEXXZ=?decorated1099@@YGXXZ @1099
?close@?$basic_ifstream@GU?$char_traits@G@std@@@std@@QAEXXZ=?decorated1100@@YGXXZ @1100
?close@?$basic_ofstream@DU?$char_traits@D@std@@@std@@QAEXXZ=?decorated1101@@YGXXZ @1101
?close@?$basic_ofstream@GU?$char_traits@G@std@@@std@@QAEXXZ=?decorated1102@@YGXXZ @1102
?close@?$messages@D@std@@QBEXH@Z=?decorated1103@@YGXXZ @1103
?close@?$messages@G@std@@QBEXH@Z=?decorated1104@@YGXXZ @1104
?compare@?$basic_string@DU?$char_traits@D@std@@V?$allocator@D@2@@std@@QBEHABV12@@Z=?decorated1105@@YGXXZ @1105
?compare@?$basic_string@DU?$char_traits@D@std@@V?$allocator@D@2@@std@@QBEHIIABV12@@Z=?decorated1106@@YGXXZ @1106
?compare@?$basic_string@DU?$char_traits@D@std@@V?$allocator@D@2@@std@@QBEHIIABV12@II@Z=?decorated1107@@YGXXZ @1107
?compare@?$basic_string@DU?$char_traits@D@std@@V?$allocator@D@2@@std@@QBEHIIPBD@Z=?decorated1108@@YGXXZ @1108
?compare@?$basic_string@DU?$char_traits@D@std@@V?$allocator@D@2@@std@@QBEHIIPBDI@Z=?decorated1109@@YGXXZ @1109
?compare@?$basic_string@DU?$char_traits@D@std@@V?$allocator@D@2@@std@@QBEHPBD@Z=?decorated1110@@YGXXZ @1110
?compare@?$basic_string@GU?$char_traits@G@std@@V?$allocator@G@2@@std@@QBEHABV12@@Z=?decorated1111@@YGXXZ @1111
?compare@?$basic_string@GU?$char_traits@G@std@@V?$allocator@G@2@@std@@QBEHIIABV12@@Z=?decorated1112@@YGXXZ @1112
?compare@?$basic_string@GU?$char_traits@G@std@@V?$allocator@G@2@@std@@QBEHIIABV12@II@Z=?decorated1113@@YGXXZ @1113
?compare@?$basic_string@GU?$char_traits@G@std@@V?$allocator@G@2@@std@@QBEHIIPBG@Z=?decorated1114@@YGXXZ @1114
?compare@?$basic_string@GU?$char_traits@G@std@@V?$allocator@G@2@@std@@QBEHIIPBGI@Z=?decorated1115@@YGXXZ @1115
?compare@?$basic_string@GU?$char_traits@G@std@@V?$allocator@G@2@@std@@QBEHPBG@Z=?decorated1116@@YGXXZ @1116
?compare@?$char_traits@D@std@@SAHPBD0I@Z=?decorated1117@@YGXXZ @1117
?compare@?$char_traits@G@std@@SAHPBG0I@Z=?decorated1118@@YGXXZ @1118
?compare@?$collate@D@std@@QBEHPBD000@Z=?decorated1119@@YGXXZ @1119
?compare@?$collate@G@std@@QBEHPBG000@Z=?decorated1120@@YGXXZ @1120
?conj@std@@YA?AV?$complex@M@1@ABV21@@Z=?decorated1121@@YGXXZ @1121
?conj@std@@YA?AV?$complex@N@1@ABV21@@Z=?decorated1122@@YGXXZ @1122
?conj@std@@YA?AV?$complex@O@1@ABV21@@Z=?decorated1123@@YGXXZ @1123
?copy@?$basic_string@DU?$char_traits@D@std@@V?$allocator@D@2@@std@@QBEIPADII@Z=?decorated1124@@YGXXZ @1124
?copy@?$basic_string@GU?$char_traits@G@std@@V?$allocator@G@2@@std@@QBEIPAGII@Z=?decorated1125@@YGXXZ @1125
?copy@?$char_traits@D@std@@SAPADPADPBDI@Z=?decorated1126@@YGXXZ @1126
?copy@?$char_traits@G@std@@SAPAGPAGPBGI@Z=?decorated1127@@YGXXZ @1127
?copyfmt@?$basic_ios@DU?$char_traits@D@std@@@std@@QAEAAV12@ABV12@@Z=?decorated1128@@YGXXZ @1128
?copyfmt@?$basic_ios@GU?$char_traits@G@std@@@std@@QAEAAV12@ABV12@@Z=?decorated1129@@YGXXZ @1129
?copyfmt@ios_base@std@@QAEAAV12@ABV12@@Z=?decorated1130@@YGXXZ @1130
?cos@?$_Ctr@M@std@@SAMM@Z=?decorated1131@@YGXXZ @1131
?cos@?$_Ctr@N@std@@SANN@Z=?decorated1132@@YGXXZ @1132
?cos@?$_Ctr@O@std@@SAOO@Z=?decorated1133@@YGXXZ @1133
?cos@std@@YA?AV?$complex@M@1@ABV21@@Z=?decorated1134@@YGXXZ @1134
?cos@std@@YA?AV?$complex@N@1@ABV21@@Z=?decorated1135@@YGXXZ @1135
?cos@std@@YA?AV?$complex@O@1@ABV21@@Z=?decorated1136@@YGXXZ @1136
?cosh@std@@YA?AV?$complex@M@1@ABV21@@Z=?decorated1137@@YGXXZ @1137
?cosh@std@@YA?AV?$complex@N@1@ABV21@@Z=?decorated1138@@YGXXZ @1138
?cosh@std@@YA?AV?$complex@O@1@ABV21@@Z=?decorated1139@@YGXXZ @1139
?cout@std@@3V?$basic_ostream@DU?$char_traits@D@std@@@1@A=?decorated1140@@YGXXZ @1140
?curr_symbol@?$_Mpunct@D@std@@QBE?AV?$basic_string@DU?$char_traits@D@std@@V?$allocator@D@2@@2@XZ=?decorated1141@@YGXXZ @1141
?curr_symbol@?$_Mpunct@G@std@@QBE?AV?$basic_string@GU?$char_traits@G@std@@V?$allocator@G@2@@2@XZ=?decorated1142@@YGXXZ @1142
?data@?$basic_string@DU?$char_traits@D@std@@V?$allocator@D@2@@std@@QBEPBDXZ=?decorated1143@@YGXXZ @1143
?data@?$basic_string@GU?$char_traits@G@std@@V?$allocator@G@2@@std@@QBEPBGXZ=?decorated1144@@YGXXZ @1144
?date_order@?$time_get@DV?$istreambuf_iterator@DU?$char_traits@D@std@@@std@@@std@@QBEHXZ=?decorated1145@@YGXXZ @1145
?date_order@?$time_get@GV?$istreambuf_iterator@GU?$char_traits@G@std@@@std@@@std@@QBEHXZ=?decorated1146@@YGXXZ @1146
?decimal_point@?$_Mpunct@D@std@@QBEDXZ=?decorated1147@@YGXXZ @1147
?decimal_point@?$_Mpunct@G@std@@QBEGXZ=?decorated1148@@YGXXZ @1148
?decimal_point@?$numpunct@D@std@@QBEDXZ=?decorated1149@@YGXXZ @1149
?decimal_point@?$numpunct@G@std@@QBEGXZ=?decorated1150@@YGXXZ @1150
?denorm_min@?$numeric_limits@_N@std@@SA_NXZ=?decorated1163@@YGXXZ @1163
?denorm_min@?$numeric_limits@C@std@@SACXZ=?decorated1151@@YGXXZ @1151
?denorm_min@?$numeric_limits@D@std@@SADXZ=?decorated1152@@YGXXZ @1152
?denorm_min@?$numeric_limits@E@std@@SAEXZ=?decorated1153@@YGXXZ @1153
?denorm_min@?$numeric_limits@F@std@@SAFXZ=?decorated1154@@YGXXZ @1154
?denorm_min@?$numeric_limits@G@std@@SAGXZ=?decorated1155@@YGXXZ @1155
?denorm_min@?$numeric_limits@H@std@@SAHXZ=?decorated1156@@YGXXZ @1156
?denorm_min@?$numeric_limits@I@std@@SAIXZ=?decorated1157@@YGXXZ @1157
?denorm_min@?$numeric_limits@J@std@@SAJXZ=?decorated1158@@YGXXZ @1158
?denorm_min@?$numeric_limits@K@std@@SAKXZ=?decorated1159@@YGXXZ @1159
?denorm_min@?$numeric_limits@M@std@@SAMXZ=?decorated1160@@YGXXZ @1160
?denorm_min@?$numeric_limits@N@std@@SANXZ=?decorated1161@@YGXXZ @1161
?denorm_min@?$numeric_limits@O@std@@SAOXZ=?decorated1162@@YGXXZ @1162
?do_always_noconv@?$codecvt@GDH@std@@MBE_NXZ=?decorated1164@@YGXXZ @1164
?do_always_noconv@codecvt_base@std@@MBE_NXZ=?decorated1165@@YGXXZ @1165
?do_close@?$messages@D@std@@MBEXH@Z=?decorated1166@@YGXXZ @1166
?do_close@?$messages@G@std@@MBEXH@Z=?decorated1167@@YGXXZ @1167
?do_compare@?$collate@D@std@@MBEHPBD000@Z=?decorated1168@@YGXXZ @1168
?do_compare@?$collate@G@std@@MBEHPBG000@Z=?decorated1169@@YGXXZ @1169
?do_curr_symbol@?$_Mpunct@D@std@@MBE?AV?$basic_string@DU?$char_traits@D@std@@V?$allocator@D@2@@2@XZ=?decorated1170@@YGXXZ @1170
?do_curr_symbol@?$_Mpunct@G@std@@MBE?AV?$basic_string@GU?$char_traits@G@std@@V?$allocator@G@2@@2@XZ=?decorated1171@@YGXXZ @1171
?do_date_order@?$time_get@DV?$istreambuf_iterator@DU?$char_traits@D@std@@@std@@@std@@MBEHXZ=?decorated1172@@YGXXZ @1172
?do_date_order@?$time_get@GV?$istreambuf_iterator@GU?$char_traits@G@std@@@std@@@std@@MBEHXZ=?decorated1173@@YGXXZ @1173
?do_decimal_point@?$_Mpunct@D@std@@MBEDXZ=?decorated1174@@YGXXZ @1174
?do_decimal_point@?$_Mpunct@G@std@@MBEGXZ=?decorated1175@@YGXXZ @1175
?do_decimal_point@?$numpunct@D@std@@MBEDXZ=?decorated1176@@YGXXZ @1176
?do_decimal_point@?$numpunct@G@std@@MBEGXZ=?decorated1177@@YGXXZ @1177
?do_encoding@?$codecvt@GDH@std@@MBEHXZ=?decorated1178@@YGXXZ @1178
?do_encoding@codecvt_base@std@@MBEHXZ=?decorated1179@@YGXXZ @1179
?do_falsename@?$numpunct@D@std@@MBE?AV?$basic_string@DU?$char_traits@D@std@@V?$allocator@D@2@@2@XZ=?decorated1180@@YGXXZ @1180
?do_falsename@?$numpunct@G@std@@MBE?AV?$basic_string@GU?$char_traits@G@std@@V?$allocator@G@2@@2@XZ=?decorated1181@@YGXXZ @1181
?do_frac_digits@?$_Mpunct@D@std@@MBEHXZ=?decorated1182@@YGXXZ @1182
?do_frac_digits@?$_Mpunct@G@std@@MBEHXZ=?decorated1183@@YGXXZ @1183
?do_get@?$messages@D@std@@MBE?AV?$basic_string@DU?$char_traits@D@std@@V?$allocator@D@2@@2@HHHABV32@@Z=?decorated1184@@YGXXZ @1184
?do_get@?$messages@G@std@@MBE?AV?$basic_string@GU?$char_traits@G@std@@V?$allocator@G@2@@2@HHHABV32@@Z=?decorated1185@@YGXXZ @1185
?do_get@?$money_get@DV?$istreambuf_iterator@DU?$char_traits@D@std@@@std@@@std@@MBE?AV?$istreambuf_iterator@DU?$char_traits@D@std@@@2@V32@0_NAAVios_base@2@AAHAAO@Z=?decorated1186@@YGXXZ @1186
?do_get@?$money_get@DV?$istreambuf_iterator@DU?$char_traits@D@std@@@std@@@std@@MBE?AV?$istreambuf_iterator@DU?$char_traits@D@std@@@2@V32@0_NAAVios_base@2@AAHAAV?$basic_string@DU?$char_traits@D@std@@V?$allocator@D@2@@2@@Z=?decorated1187@@YGXXZ @1187
?do_get@?$money_get@GV?$istreambuf_iterator@GU?$char_traits@G@std@@@std@@@std@@MBE?AV?$istreambuf_iterator@GU?$char_traits@G@std@@@2@V32@0_NAAVios_base@2@AAHAAO@Z=?decorated1188@@YGXXZ @1188
?do_get@?$money_get@GV?$istreambuf_iterator@GU?$char_traits@G@std@@@std@@@std@@MBE?AV?$istreambuf_iterator@GU?$char_traits@G@std@@@2@V32@0_NAAVios_base@2@AAHAAV?$basic_string@GU?$char_traits@G@std@@V?$allocator@G@2@@2@@Z=?decorated1189@@YGXXZ @1189
?do_get@?$num_get@DV?$istreambuf_iterator@DU?$char_traits@D@std@@@std@@@std@@MBE?AV?$istreambuf_iterator@DU?$char_traits@D@std@@@2@V32@0AAVios_base@2@AAHAA_N@Z=?decorated1198@@YGXXZ @1198
?do_get@?$num_get@DV?$istreambuf_iterator@DU?$char_traits@D@std@@@std@@@std@@MBE?AV?$istreambuf_iterator@DU?$char_traits@D@std@@@2@V32@0AAVios_base@2@AAHAAG@Z=?decorated1190@@YGXXZ @1190
?do_get@?$num_get@DV?$istreambuf_iterator@DU?$char_traits@D@std@@@std@@@std@@MBE?AV?$istreambuf_iterator@DU?$char_traits@D@std@@@2@V32@0AAVios_base@2@AAHAAI@Z=?decorated1191@@YGXXZ @1191
?do_get@?$num_get@DV?$istreambuf_iterator@DU?$char_traits@D@std@@@std@@@std@@MBE?AV?$istreambuf_iterator@DU?$char_traits@D@std@@@2@V32@0AAVios_base@2@AAHAAJ@Z=?decorated1192@@YGXXZ @1192
?do_get@?$num_get@DV?$istreambuf_iterator@DU?$char_traits@D@std@@@std@@@std@@MBE?AV?$istreambuf_iterator@DU?$char_traits@D@std@@@2@V32@0AAVios_base@2@AAHAAK@Z=?decorated1193@@YGXXZ @1193
?do_get@?$num_get@DV?$istreambuf_iterator@DU?$char_traits@D@std@@@std@@@std@@MBE?AV?$istreambuf_iterator@DU?$char_traits@D@std@@@2@V32@0AAVios_base@2@AAHAAM@Z=?decorated1194@@YGXXZ @1194
?do_get@?$num_get@DV?$istreambuf_iterator@DU?$char_traits@D@std@@@std@@@std@@MBE?AV?$istreambuf_iterator@DU?$char_traits@D@std@@@2@V32@0AAVios_base@2@AAHAAN@Z=?decorated1195@@YGXXZ @1195
?do_get@?$num_get@DV?$istreambuf_iterator@DU?$char_traits@D@std@@@std@@@std@@MBE?AV?$istreambuf_iterator@DU?$char_traits@D@std@@@2@V32@0AAVios_base@2@AAHAAO@Z=?decorated1196@@YGXXZ @1196
?do_get@?$num_get@DV?$istreambuf_iterator@DU?$char_traits@D@std@@@std@@@std@@MBE?AV?$istreambuf_iterator@DU?$char_traits@D@std@@@2@V32@0AAVios_base@2@AAHAAPAX@Z=?decorated1197@@YGXXZ @1197
?do_get@?$num_get@GV?$istreambuf_iterator@GU?$char_traits@G@std@@@std@@@std@@MBE?AV?$istreambuf_iterator@GU?$char_traits@G@std@@@2@V32@0AAVios_base@2@AAHAA_N@Z=?decorated1207@@YGXXZ @1207
?do_get@?$num_get@GV?$istreambuf_iterator@GU?$char_traits@G@std@@@std@@@std@@MBE?AV?$istreambuf_iterator@GU?$char_traits@G@std@@@2@V32@0AAVios_base@2@AAHAAG@Z=?decorated1199@@YGXXZ @1199
?do_get@?$num_get@GV?$istreambuf_iterator@GU?$char_traits@G@std@@@std@@@std@@MBE?AV?$istreambuf_iterator@GU?$char_traits@G@std@@@2@V32@0AAVios_base@2@AAHAAI@Z=?decorated1200@@YGXXZ @1200
?do_get@?$num_get@GV?$istreambuf_iterator@GU?$char_traits@G@std@@@std@@@std@@MBE?AV?$istreambuf_iterator@GU?$char_traits@G@std@@@2@V32@0AAVios_base@2@AAHAAJ@Z=?decorated1201@@YGXXZ @1201
?do_get@?$num_get@GV?$istreambuf_iterator@GU?$char_traits@G@std@@@std@@@std@@MBE?AV?$istreambuf_iterator@GU?$char_traits@G@std@@@2@V32@0AAVios_base@2@AAHAAK@Z=?decorated1202@@YGXXZ @1202
?do_get@?$num_get@GV?$istreambuf_iterator@GU?$char_traits@G@std@@@std@@@std@@MBE?AV?$istreambuf_iterator@GU?$char_traits@G@std@@@2@V32@0AAVios_base@2@AAHAAM@Z=?decorated1203@@YGXXZ @1203
?do_get@?$num_get@GV?$istreambuf_iterator@GU?$char_traits@G@std@@@std@@@std@@MBE?AV?$istreambuf_iterator@GU?$char_traits@G@std@@@2@V32@0AAVios_base@2@AAHAAN@Z=?decorated1204@@YGXXZ @1204
?do_get@?$num_get@GV?$istreambuf_iterator@GU?$char_traits@G@std@@@std@@@std@@MBE?AV?$istreambuf_iterator@GU?$char_traits@G@std@@@2@V32@0AAVios_base@2@AAHAAO@Z=?decorated1205@@YGXXZ @1205
?do_get@?$num_get@GV?$istreambuf_iterator@GU?$char_traits@G@std@@@std@@@std@@MBE?AV?$istreambuf_iterator@GU?$char_traits@G@std@@@2@V32@0AAVios_base@2@AAHAAPAX@Z=?decorated1206@@YGXXZ @1206
?do_get_date@?$time_get@DV?$istreambuf_iterator@DU?$char_traits@D@std@@@std@@@std@@MBE?AV?$istreambuf_iterator@DU?$char_traits@D@std@@@2@V32@0AAVios_base@2@AAHPAUtm@@@Z=?decorated1208@@YGXXZ @1208
?do_get_date@?$time_get@GV?$istreambuf_iterator@GU?$char_traits@G@std@@@std@@@std@@MBE?AV?$istreambuf_iterator@GU?$char_traits@G@std@@@2@V32@0AAVios_base@2@AAHPAUtm@@@Z=?decorated1209@@YGXXZ @1209
?do_get_monthname@?$time_get@DV?$istreambuf_iterator@DU?$char_traits@D@std@@@std@@@std@@MBE?AV?$istreambuf_iterator@DU?$char_traits@D@std@@@2@V32@0AAVios_base@2@AAHPAUtm@@@Z=?decorated1210@@YGXXZ @1210
?do_get_monthname@?$time_get@GV?$istreambuf_iterator@GU?$char_traits@G@std@@@std@@@std@@MBE?AV?$istreambuf_iterator@GU?$char_traits@G@std@@@2@V32@0AAVios_base@2@AAHPAUtm@@@Z=?decorated1211@@YGXXZ @1211
?do_get_time@?$time_get@DV?$istreambuf_iterator@DU?$char_traits@D@std@@@std@@@std@@MBE?AV?$istreambuf_iterator@DU?$char_traits@D@std@@@2@V32@0AAVios_base@2@AAHPAUtm@@@Z=?decorated1212@@YGXXZ @1212
?do_get_time@?$time_get@GV?$istreambuf_iterator@GU?$char_traits@G@std@@@std@@@std@@MBE?AV?$istreambuf_iterator@GU?$char_traits@G@std@@@2@V32@0AAVios_base@2@AAHPAUtm@@@Z=?decorated1213@@YGXXZ @1213
?do_get_weekday@?$time_get@DV?$istreambuf_iterator@DU?$char_traits@D@std@@@std@@@std@@MBE?AV?$istreambuf_iterator@DU?$char_traits@D@std@@@2@V32@0AAVios_base@2@AAHPAUtm@@@Z=?decorated1214@@YGXXZ @1214
?do_get_weekday@?$time_get@GV?$istreambuf_iterator@GU?$char_traits@G@std@@@std@@@std@@MBE?AV?$istreambuf_iterator@GU?$char_traits@G@std@@@2@V32@0AAVios_base@2@AAHPAUtm@@@Z=?decorated1215@@YGXXZ @1215
?do_get_year@?$time_get@DV?$istreambuf_iterator@DU?$char_traits@D@std@@@std@@@std@@MBE?AV?$istreambuf_iterator@DU?$char_traits@D@std@@@2@V32@0AAVios_base@2@AAHPAUtm@@@Z=?decorated1216@@YGXXZ @1216
?do_get_year@?$time_get@GV?$istreambuf_iterator@GU?$char_traits@G@std@@@std@@@std@@MBE?AV?$istreambuf_iterator@GU?$char_traits@G@std@@@2@V32@0AAVios_base@2@AAHPAUtm@@@Z=?decorated1217@@YGXXZ @1217
?do_grouping@?$_Mpunct@D@std@@MBE?AV?$basic_string@DU?$char_traits@D@std@@V?$allocator@D@2@@2@XZ=?decorated1218@@YGXXZ @1218
?do_grouping@?$_Mpunct@G@std@@MBE?AV?$basic_string@DU?$char_traits@D@std@@V?$allocator@D@2@@2@XZ=?decorated1219@@YGXXZ @1219
?do_grouping@?$numpunct@D@std@@MBE?AV?$basic_string@DU?$char_traits@D@std@@V?$allocator@D@2@@2@XZ=?decorated1220@@YGXXZ @1220
?do_grouping@?$numpunct@G@std@@MBE?AV?$basic_string@DU?$char_traits@D@std@@V?$allocator@D@2@@2@XZ=?decorated1221@@YGXXZ @1221
?do_hash@?$collate@D@std@@MBEJPBD0@Z=?decorated1222@@YGXXZ @1222
?do_hash@?$collate@G@std@@MBEJPBG0@Z=?decorated1223@@YGXXZ @1223
?do_in@?$codecvt@DDH@std@@MBEHAAHPBD1AAPBDPAD3AAPAD@Z=?decorated1224@@YGXXZ @1224
?do_in@?$codecvt@GDH@std@@MBEHAAHPBD1AAPBDPAG3AAPAG@Z=?decorated1225@@YGXXZ @1225
?do_is@?$ctype@G@std@@MBE_NFG@Z=?decorated1227@@YGXXZ @1227
?do_is@?$ctype@G@std@@MBEPBGPBG0PAF@Z=?decorated1226@@YGXXZ @1226
?do_length@?$codecvt@DDH@std@@MBEHAAHPBD1I@Z=?decorated1228@@YGXXZ @1228
?do_length@?$codecvt@GDH@std@@MBEHAAHPBG1I@Z=?decorated1229@@YGXXZ @1229
?do_max_length@?$codecvt@GDH@std@@MBEHXZ=?decorated1230@@YGXXZ @1230
?do_max_length@codecvt_base@std@@MBEHXZ=?decorated1231@@YGXXZ @1231
?do_narrow@?$ctype@G@std@@MBEDGD@Z=?decorated1232@@YGXXZ @1232
?do_narrow@?$ctype@G@std@@MBEPBGPBG0DPAD@Z=?decorated1233@@YGXXZ @1233
?do_neg_format@?$_Mpunct@D@std@@MBE?AUpattern@money_base@2@XZ=?decorated1234@@YGXXZ @1234
?do_neg_format@?$_Mpunct@G@std@@MBE?AUpattern@money_base@2@XZ=?decorated1235@@YGXXZ @1235
?do_negative_sign@?$_Mpunct@D@std@@MBE?AV?$basic_string@DU?$char_traits@D@std@@V?$allocator@D@2@@2@XZ=?decorated1236@@YGXXZ @1236
?do_negative_sign@?$_Mpunct@G@std@@MBE?AV?$basic_string@GU?$char_traits@G@std@@V?$allocator@G@2@@2@XZ=?decorated1237@@YGXXZ @1237
?do_open@?$messages@D@std@@MBEHABV?$basic_string@DU?$char_traits@D@std@@V?$allocator@D@2@@2@ABVlocale@2@@Z=?decorated1238@@YGXXZ @1238
?do_open@?$messages@G@std@@MBEHABV?$basic_string@DU?$char_traits@D@std@@V?$allocator@D@2@@2@ABVlocale@2@@Z=?decorated1239@@YGXXZ @1239
?do_out@?$codecvt@DDH@std@@MBEHAAHPBD1AAPBDPAD3AAPAD@Z=?decorated1240@@YGXXZ @1240
?do_out@?$codecvt@GDH@std@@MBEHAAHPBG1AAPBGPAD3AAPAD@Z=?decorated1241@@YGXXZ @1241
?do_pos_format@?$_Mpunct@D@std@@MBE?AUpattern@money_base@2@XZ=?decorated1242@@YGXXZ @1242
?do_pos_format@?$_Mpunct@G@std@@MBE?AUpattern@money_base@2@XZ=?decorated1243@@YGXXZ @1243
?do_positive_sign@?$_Mpunct@D@std@@MBE?AV?$basic_string@DU?$char_traits@D@std@@V?$allocator@D@2@@2@XZ=?decorated1244@@YGXXZ @1244
?do_positive_sign@?$_Mpunct@G@std@@MBE?AV?$basic_string@GU?$char_traits@G@std@@V?$allocator@G@2@@2@XZ=?decorated1245@@YGXXZ @1245
?do_put@?$money_put@DV?$ostreambuf_iterator@DU?$char_traits@D@std@@@std@@@std@@MBE?AV?$ostreambuf_iterator@DU?$char_traits@D@std@@@2@V32@_NAAVios_base@2@DABV?$basic_string@DU?$char_traits@D@std@@V?$allocator@D@2@@2@@Z=?decorated1246@@YGXXZ @1246
?do_put@?$money_put@DV?$ostreambuf_iterator@DU?$char_traits@D@std@@@std@@@std@@MBE?AV?$ostreambuf_iterator@DU?$char_traits@D@std@@@2@V32@_NAAVios_base@2@DO@Z=?decorated1247@@YGXXZ @1247
?do_put@?$money_put@GV?$ostreambuf_iterator@GU?$char_traits@G@std@@@std@@@std@@MBE?AV?$ostreambuf_iterator@GU?$char_traits@G@std@@@2@V32@_NAAVios_base@2@GABV?$basic_string@GU?$char_traits@G@std@@V?$allocator@G@2@@2@@Z=?decorated1248@@YGXXZ @1248
?do_put@?$money_put@GV?$ostreambuf_iterator@GU?$char_traits@G@std@@@std@@@std@@MBE?AV?$ostreambuf_iterator@GU?$char_traits@G@std@@@2@V32@_NAAVios_base@2@GO@Z=?decorated1249@@YGXXZ @1249
?do_put@?$num_put@DV?$ostreambuf_iterator@DU?$char_traits@D@std@@@std@@@std@@MBE?AV?$ostreambuf_iterator@DU?$char_traits@D@std@@@2@V32@AAVios_base@2@D_N@Z=?decorated1255@@YGXXZ @1255
?do_put@?$num_put@DV?$ostreambuf_iterator@DU?$char_traits@D@std@@@std@@@std@@MBE?AV?$ostreambuf_iterator@DU?$char_traits@D@std@@@2@V32@AAVios_base@2@DJ@Z=?decorated1250@@YGXXZ @1250
?do_put@?$num_put@DV?$ostreambuf_iterator@DU?$char_traits@D@std@@@std@@@std@@MBE?AV?$ostreambuf_iterator@DU?$char_traits@D@std@@@2@V32@AAVios_base@2@DK@Z=?decorated1251@@YGXXZ @1251
?do_put@?$num_put@DV?$ostreambuf_iterator@DU?$char_traits@D@std@@@std@@@std@@MBE?AV?$ostreambuf_iterator@DU?$char_traits@D@std@@@2@V32@AAVios_base@2@DN@Z=?decorated1252@@YGXXZ @1252
?do_put@?$num_put@DV?$ostreambuf_iterator@DU?$char_traits@D@std@@@std@@@std@@MBE?AV?$ostreambuf_iterator@DU?$char_traits@D@std@@@2@V32@AAVios_base@2@DO@Z=?decorated1253@@YGXXZ @1253
?do_put@?$num_put@DV?$ostreambuf_iterator@DU?$char_traits@D@std@@@std@@@std@@MBE?AV?$ostreambuf_iterator@DU?$char_traits@D@std@@@2@V32@AAVios_base@2@DPBX@Z=?decorated1254@@YGXXZ @1254
?do_put@?$num_put@GV?$ostreambuf_iterator@GU?$char_traits@G@std@@@std@@@std@@MBE?AV?$ostreambuf_iterator@GU?$char_traits@G@std@@@2@V32@AAVios_base@2@G_N@Z=?decorated1261@@YGXXZ @1261
?do_put@?$num_put@GV?$ostreambuf_iterator@GU?$char_traits@G@std@@@std@@@std@@MBE?AV?$ostreambuf_iterator@GU?$char_traits@G@std@@@2@V32@AAVios_base@2@GJ@Z=?decorated1256@@YGXXZ @1256
?do_put@?$num_put@GV?$ostreambuf_iterator@GU?$char_traits@G@std@@@std@@@std@@MBE?AV?$ostreambuf_iterator@GU?$char_traits@G@std@@@2@V32@AAVios_base@2@GK@Z=?decorated1257@@YGXXZ @1257
?do_put@?$num_put@GV?$ostreambuf_iterator@GU?$char_traits@G@std@@@std@@@std@@MBE?AV?$ostreambuf_iterator@GU?$char_traits@G@std@@@2@V32@AAVios_base@2@GN@Z=?decorated1258@@YGXXZ @1258
?do_put@?$num_put@GV?$ostreambuf_iterator@GU?$char_traits@G@std@@@std@@@std@@MBE?AV?$ostreambuf_iterator@GU?$char_traits@G@std@@@2@V32@AAVios_base@2@GO@Z=?decorated1259@@YGXXZ @1259
?do_put@?$num_put@GV?$ostreambuf_iterator@GU?$char_traits@G@std@@@std@@@std@@MBE?AV?$ostreambuf_iterator@GU?$char_traits@G@std@@@2@V32@AAVios_base@2@GPBX@Z=?decorated1260@@YGXXZ @1260
?do_put@?$time_put@DV?$ostreambuf_iterator@DU?$char_traits@D@std@@@std@@@std@@MBE?AV?$ostreambuf_iterator@DU?$char_traits@D@std@@@2@V32@AAVios_base@2@PBUtm@@DD@Z=?decorated1262@@YGXXZ @1262
?do_put@?$time_put@GV?$ostreambuf_iterator@GU?$char_traits@G@std@@@std@@@std@@MBE?AV?$ostreambuf_iterator@GU?$char_traits@G@std@@@2@V32@AAVios_base@2@PBUtm@@DD@Z=?decorated1263@@YGXXZ @1263
?do_scan_is@?$ctype@G@std@@MBEPBGFPBG0@Z=?decorated1264@@YGXXZ @1264
?do_scan_not@?$ctype@G@std@@MBEPBGFPBG0@Z=?decorated1265@@YGXXZ @1265
?do_thousands_sep@?$_Mpunct@D@std@@MBEDXZ=?decorated1266@@YGXXZ @1266
?do_thousands_sep@?$_Mpunct@G@std@@MBEGXZ=?decorated1267@@YGXXZ @1267
?do_thousands_sep@?$numpunct@D@std@@MBEDXZ=?decorated1268@@YGXXZ @1268
?do_thousands_sep@?$numpunct@G@std@@MBEGXZ=?decorated1269@@YGXXZ @1269
?do_tolower@?$ctype@D@std@@MBEDD@Z=?decorated1270@@YGXXZ @1270
?do_tolower@?$ctype@D@std@@MBEPBDPADPBD@Z=?decorated1271@@YGXXZ @1271
?do_tolower@?$ctype@G@std@@MBEGG@Z=?decorated1272@@YGXXZ @1272
?do_tolower@?$ctype@G@std@@MBEPBGPAGPBG@Z=?decorated1273@@YGXXZ @1273
?do_toupper@?$ctype@D@std@@MBEDD@Z=?decorated1274@@YGXXZ @1274
?do_toupper@?$ctype@D@std@@MBEPBDPADPBD@Z=?decorated1275@@YGXXZ @1275
?do_toupper@?$ctype@G@std@@MBEGG@Z=?decorated1276@@YGXXZ @1276
?do_toupper@?$ctype@G@std@@MBEPBGPAGPBG@Z=?decorated1277@@YGXXZ @1277
?do_transform@?$collate@D@std@@MBE?AV?$basic_string@DU?$char_traits@D@std@@V?$allocator@D@2@@2@PBD0@Z=?decorated1278@@YGXXZ @1278
?do_transform@?$collate@G@std@@MBE?AV?$basic_string@GU?$char_traits@G@std@@V?$allocator@G@2@@2@PBG0@Z=?decorated1279@@YGXXZ @1279
?do_truename@?$numpunct@D@std@@MBE?AV?$basic_string@DU?$char_traits@D@std@@V?$allocator@D@2@@2@XZ=?decorated1280@@YGXXZ @1280
?do_truename@?$numpunct@G@std@@MBE?AV?$basic_string@GU?$char_traits@G@std@@V?$allocator@G@2@@2@XZ=?decorated1281@@YGXXZ @1281
?do_widen@?$ctype@G@std@@MBEGD@Z=?decorated1282@@YGXXZ @1282
?do_widen@?$ctype@G@std@@MBEPBDPBD0PAG@Z=?decorated1283@@YGXXZ @1283
?eback@?$basic_streambuf@DU?$char_traits@D@std@@@std@@IBEPADXZ=?decorated1284@@YGXXZ @1284
?eback@?$basic_streambuf@GU?$char_traits@G@std@@@std@@IBEPAGXZ=?decorated1285@@YGXXZ @1285
?egptr@?$basic_streambuf@DU?$char_traits@D@std@@@std@@IBEPADXZ=?decorated1286@@YGXXZ @1286
?egptr@?$basic_streambuf@GU?$char_traits@G@std@@@std@@IBEPAGXZ=?decorated1287@@YGXXZ @1287
?empty@?$basic_string@DU?$char_traits@D@std@@V?$allocator@D@2@@std@@QBE_NXZ=?decorated1288@@YGXXZ @1288
?empty@?$basic_string@GU?$char_traits@G@std@@V?$allocator@G@2@@std@@QBE_NXZ=?decorated1289@@YGXXZ @1289
?empty@locale@std@@SA?AV12@XZ=?decorated1290@@YGXXZ @1290
?encoding@codecvt_base@std@@QBEHXZ=?decorated1291@@YGXXZ @1291
?end@?$basic_string@DU?$char_traits@D@std@@V?$allocator@D@2@@std@@QAEPADXZ=?decorated1292@@YGXXZ @1292
?end@?$basic_string@DU?$char_traits@D@std@@V?$allocator@D@2@@std@@QBEPBDXZ=?decorated1293@@YGXXZ @1293
?end@?$basic_string@GU?$char_traits@G@std@@V?$allocator@G@2@@std@@QAEPAGXZ=?decorated1294@@YGXXZ @1294
?end@?$basic_string@GU?$char_traits@G@std@@V?$allocator@G@2@@std@@QBEPBGXZ=?decorated1295@@YGXXZ @1295
?endl@std@@YAAAV?$basic_ostream@DU?$char_traits@D@std@@@1@AAV21@@Z=?decorated1296@@YGXXZ @1296
?endl@std@@YAAAV?$basic_ostream@GU?$char_traits@G@std@@@1@AAV21@@Z=?decorated1297@@YGXXZ @1297
?ends@std@@YAAAV?$basic_ostream@DU?$char_traits@D@std@@@1@AAV21@@Z=?decorated1298@@YGXXZ @1298
?ends@std@@YAAAV?$basic_ostream@GU?$char_traits@G@std@@@1@AAV21@@Z=?decorated1299@@YGXXZ @1299
?eof@?$char_traits@D@std@@SAHXZ=?decorated1300@@YGXXZ @1300
?eof@?$char_traits@G@std@@SAGXZ=?decorated1301@@YGXXZ @1301
?eof@ios_base@std@@QBE_NXZ=?decorated1302@@YGXXZ @1302
?epptr@?$basic_streambuf@DU?$char_traits@D@std@@@std@@IBEPADXZ=?decorated1303@@YGXXZ @1303
?epptr@?$basic_streambuf@GU?$char_traits@G@std@@@std@@IBEPAGXZ=?decorated1304@@YGXXZ @1304
?epsilon@?$numeric_limits@_N@std@@SA_NXZ=?decorated1317@@YGXXZ @1317
?epsilon@?$numeric_limits@C@std@@SACXZ=?decorated1305@@YGXXZ @1305
?epsilon@?$numeric_limits@D@std@@SADXZ=?decorated1306@@YGXXZ @1306
?epsilon@?$numeric_limits@E@std@@SAEXZ=?decorated1307@@YGXXZ @1307
?epsilon@?$numeric_limits@F@std@@SAFXZ=?decorated1308@@YGXXZ @1308
?epsilon@?$numeric_limits@G@std@@SAGXZ=?decorated1309@@YGXXZ @1309
?epsilon@?$numeric_limits@H@std@@SAHXZ=?decorated1310@@YGXXZ @1310
?epsilon@?$numeric_limits@I@std@@SAIXZ=?decorated1311@@YGXXZ @1311
?epsilon@?$numeric_limits@J@std@@SAJXZ=?decorated1312@@YGXXZ @1312
?epsilon@?$numeric_limits@K@std@@SAKXZ=?decorated1313@@YGXXZ @1313
?epsilon@?$numeric_limits@M@std@@SAMXZ=?decorated1314@@YGXXZ @1314
?epsilon@?$numeric_limits@N@std@@SANXZ=?decorated1315@@YGXXZ @1315
?epsilon@?$numeric_limits@O@std@@SAOXZ=?decorated1316@@YGXXZ @1316
?eq@?$char_traits@D@std@@SA_NABD0@Z=?decorated1318@@YGXXZ @1318
?eq@?$char_traits@G@std@@SA_NABG0@Z=?decorated1319@@YGXXZ @1319
?eq_int_type@?$char_traits@D@std@@SA_NABH0@Z=?decorated1320@@YGXXZ @1320
?eq_int_type@?$char_traits@G@std@@SA_NABG0@Z=?decorated1321@@YGXXZ @1321
?erase@?$basic_string@DU?$char_traits@D@std@@V?$allocator@D@2@@std@@QAEAAV12@II@Z=?decorated1322@@YGXXZ @1322
?erase@?$basic_string@DU?$char_traits@D@std@@V?$allocator@D@2@@std@@QAEPADPAD0@Z=?decorated1323@@YGXXZ @1323
?erase@?$basic_string@DU?$char_traits@D@std@@V?$allocator@D@2@@std@@QAEPADPAD@Z=?decorated1324@@YGXXZ @1324
?erase@?$basic_string@GU?$char_traits@G@std@@V?$allocator@G@2@@std@@QAEAAV12@II@Z=?decorated1325@@YGXXZ @1325
?erase@?$basic_string@GU?$char_traits@G@std@@V?$allocator@G@2@@std@@QAEPAGPAG0@Z=?decorated1326@@YGXXZ @1326
?erase@?$basic_string@GU?$char_traits@G@std@@V?$allocator@G@2@@std@@QAEPAGPAG@Z=?decorated1327@@YGXXZ @1327
?exceptions@ios_base@std@@QAEXF@Z=?decorated1328@@YGXXZ @1328
?exceptions@ios_base@std@@QAEXH@Z=?decorated1329@@YGXXZ @1329
?exceptions@ios_base@std@@QBEHXZ=?decorated1330@@YGXXZ @1330
?exp@?$_Ctr@M@std@@SAMM@Z=?decorated1331@@YGXXZ @1331
?exp@?$_Ctr@N@std@@SANN@Z=?decorated1332@@YGXXZ @1332
?exp@?$_Ctr@O@std@@SAOO@Z=?decorated1333@@YGXXZ @1333
?exp@std@@YA?AV?$complex@M@1@ABV21@@Z=?decorated1334@@YGXXZ @1334
?exp@std@@YA?AV?$complex@N@1@ABV21@@Z=?decorated1335@@YGXXZ @1335
?exp@std@@YA?AV?$complex@O@1@ABV21@@Z=?decorated1336@@YGXXZ @1336
?fail@ios_base@std@@QBE_NXZ=?decorated1337@@YGXXZ @1337
?falsename@?$numpunct@D@std@@QBE?AV?$basic_string@DU?$char_traits@D@std@@V?$allocator@D@2@@2@XZ=?decorated1338@@YGXXZ @1338
?falsename@?$numpunct@G@std@@QBE?AV?$basic_string@GU?$char_traits@G@std@@V?$allocator@G@2@@2@XZ=?decorated1339@@YGXXZ @1339
?fill@?$basic_ios@DU?$char_traits@D@std@@@std@@QAEDD@Z=?decorated1340@@YGXXZ @1340
?fill@?$basic_ios@DU?$char_traits@D@std@@@std@@QBEDXZ=?decorated1341@@YGXXZ @1341
?fill@?$basic_ios@GU?$char_traits@G@std@@@std@@QAEGG@Z=?decorated1342@@YGXXZ @1342
?fill@?$basic_ios@GU?$char_traits@G@std@@@std@@QBEGXZ=?decorated1343@@YGXXZ @1343
?find@?$basic_string@DU?$char_traits@D@std@@V?$allocator@D@2@@std@@QBEIABV12@I@Z=?decorated1344@@YGXXZ @1344
?find@?$basic_string@DU?$char_traits@D@std@@V?$allocator@D@2@@std@@QBEIDI@Z=?decorated1345@@YGXXZ @1345
?find@?$basic_string@DU?$char_traits@D@std@@V?$allocator@D@2@@std@@QBEIPBDI@Z=?decorated1346@@YGXXZ @1346
?find@?$basic_string@DU?$char_traits@D@std@@V?$allocator@D@2@@std@@QBEIPBDII@Z=?decorated1347@@YGXXZ @1347
?find@?$basic_string@GU?$char_traits@G@std@@V?$allocator@G@2@@std@@QBEIABV12@I@Z=?decorated1348@@YGXXZ @1348
?find@?$basic_string@GU?$char_traits@G@std@@V?$allocator@G@2@@std@@QBEIGI@Z=?decorated1349@@YGXXZ @1349
?find@?$basic_string@GU?$char_traits@G@std@@V?$allocator@G@2@@std@@QBEIPBGI@Z=?decorated1350@@YGXXZ @1350
?find@?$basic_string@GU?$char_traits@G@std@@V?$allocator@G@2@@std@@QBEIPBGII@Z=?decorated1351@@YGXXZ @1351
?find@?$char_traits@D@std@@SAPBDPBDIABD@Z=?decorated1352@@YGXXZ @1352
?find@?$char_traits@G@std@@SAPBGPBGIABG@Z=?decorated1353@@YGXXZ @1353
?find_first_not_of@?$basic_string@DU?$char_traits@D@std@@V?$allocator@D@2@@std@@QBEIABV12@I@Z=?decorated1354@@YGXXZ @1354
?find_first_not_of@?$basic_string@DU?$char_traits@D@std@@V?$allocator@D@2@@std@@QBEIDI@Z=?decorated1355@@YGXXZ @1355
?find_first_not_of@?$basic_string@DU?$char_traits@D@std@@V?$allocator@D@2@@std@@QBEIPBDI@Z=?decorated1356@@YGXXZ @1356
?find_first_not_of@?$basic_string@DU?$char_traits@D@std@@V?$allocator@D@2@@std@@QBEIPBDII@Z=?decorated1357@@YGXXZ @1357
?find_first_not_of@?$basic_string@GU?$char_traits@G@std@@V?$allocator@G@2@@std@@QBEIABV12@I@Z=?decorated1358@@YGXXZ @1358
?find_first_not_of@?$basic_string@GU?$char_traits@G@std@@V?$allocator@G@2@@std@@QBEIGI@Z=?decorated1359@@YGXXZ @1359
?find_first_not_of@?$basic_string@GU?$char_traits@G@std@@V?$allocator@G@2@@std@@QBEIPBGI@Z=?decorated1360@@YGXXZ @1360
?find_first_not_of@?$basic_string@GU?$char_traits@G@std@@V?$allocator@G@2@@std@@QBEIPBGII@Z=?decorated1361@@YGXXZ @1361
?find_first_of@?$basic_string@DU?$char_traits@D@std@@V?$allocator@D@2@@std@@QBEIABV12@I@Z=?decorated1362@@YGXXZ @1362
?find_first_of@?$basic_string@DU?$char_traits@D@std@@V?$allocator@D@2@@std@@QBEIDI@Z=?decorated1363@@YGXXZ @1363
?find_first_of@?$basic_string@DU?$char_traits@D@std@@V?$allocator@D@2@@std@@QBEIPBDI@Z=?decorated1364@@YGXXZ @1364
?find_first_of@?$basic_string@DU?$char_traits@D@std@@V?$allocator@D@2@@std@@QBEIPBDII@Z=?decorated1365@@YGXXZ @1365
?find_first_of@?$basic_string@GU?$char_traits@G@std@@V?$allocator@G@2@@std@@QBEIABV12@I@Z=?decorated1366@@YGXXZ @1366
?find_first_of@?$basic_string@GU?$char_traits@G@std@@V?$allocator@G@2@@std@@QBEIGI@Z=?decorated1367@@YGXXZ @1367
?find_first_of@?$basic_string@GU?$char_traits@G@std@@V?$allocator@G@2@@std@@QBEIPBGI@Z=?decorated1368@@YGXXZ @1368
?find_first_of@?$basic_string@GU?$char_traits@G@std@@V?$allocator@G@2@@std@@QBEIPBGII@Z=?decorated1369@@YGXXZ @1369
?find_last_not_of@?$basic_string@DU?$char_traits@D@std@@V?$allocator@D@2@@std@@QBEIABV12@I@Z=?decorated1370@@YGXXZ @1370
?find_last_not_of@?$basic_string@DU?$char_traits@D@std@@V?$allocator@D@2@@std@@QBEIDI@Z=?decorated1371@@YGXXZ @1371
?find_last_not_of@?$basic_string@DU?$char_traits@D@std@@V?$allocator@D@2@@std@@QBEIPBDI@Z=?decorated1372@@YGXXZ @1372
?find_last_not_of@?$basic_string@DU?$char_traits@D@std@@V?$allocator@D@2@@std@@QBEIPBDII@Z=?decorated1373@@YGXXZ @1373
?find_last_not_of@?$basic_string@GU?$char_traits@G@std@@V?$allocator@G@2@@std@@QBEIABV12@I@Z=?decorated1374@@YGXXZ @1374
?find_last_not_of@?$basic_string@GU?$char_traits@G@std@@V?$allocator@G@2@@std@@QBEIGI@Z=?decorated1375@@YGXXZ @1375
?find_last_not_of@?$basic_string@GU?$char_traits@G@std@@V?$allocator@G@2@@std@@QBEIPBGI@Z=?decorated1376@@YGXXZ @1376
?find_last_not_of@?$basic_string@GU?$char_traits@G@std@@V?$allocator@G@2@@std@@QBEIPBGII@Z=?decorated1377@@YGXXZ @1377
?find_last_of@?$basic_string@DU?$char_traits@D@std@@V?$allocator@D@2@@std@@QBEIABV12@I@Z=?decorated1378@@YGXXZ @1378
?find_last_of@?$basic_string@DU?$char_traits@D@std@@V?$allocator@D@2@@std@@QBEIDI@Z=?decorated1379@@YGXXZ @1379
?find_last_of@?$basic_string@DU?$char_traits@D@std@@V?$allocator@D@2@@std@@QBEIPBDI@Z=?decorated1380@@YGXXZ @1380
?find_last_of@?$basic_string@DU?$char_traits@D@std@@V?$allocator@D@2@@std@@QBEIPBDII@Z=?decorated1381@@YGXXZ @1381
?find_last_of@?$basic_string@GU?$char_traits@G@std@@V?$allocator@G@2@@std@@QBEIABV12@I@Z=?decorated1382@@YGXXZ @1382
?find_last_of@?$basic_string@GU?$char_traits@G@std@@V?$allocator@G@2@@std@@QBEIGI@Z=?decorated1383@@YGXXZ @1383
?find_last_of@?$basic_string@GU?$char_traits@G@std@@V?$allocator@G@2@@std@@QBEIPBGI@Z=?decorated1384@@YGXXZ @1384
?find_last_of@?$basic_string@GU?$char_traits@G@std@@V?$allocator@G@2@@std@@QBEIPBGII@Z=?decorated1385@@YGXXZ @1385
?flags@ios_base@std@@QAEHH@Z=?decorated1386@@YGXXZ @1386
?flags@ios_base@std@@QBEHXZ=?decorated1387@@YGXXZ @1387
?flush@?$basic_ostream@DU?$char_traits@D@std@@@std@@QAEAAV12@XZ=?decorated1388@@YGXXZ @1388
?flush@?$basic_ostream@GU?$char_traits@G@std@@@std@@QAEAAV12@XZ=?decorated1389@@YGXXZ @1389
?flush@std@@YAAAV?$basic_ostream@DU?$char_traits@D@std@@@1@AAV21@@Z=?decorated1390@@YGXXZ @1390
?flush@std@@YAAAV?$basic_ostream@GU?$char_traits@G@std@@@1@AAV21@@Z=?decorated1391@@YGXXZ @1391
?frac_digits@?$_Mpunct@D@std@@QBEHXZ=?decorated1392@@YGXXZ @1392
?frac_digits@?$_Mpunct@G@std@@QBEHXZ=?decorated1393@@YGXXZ @1393
?freeze@strstreambuf@std@@QAEX_N@Z=?decorated1394@@YGXXZ @1394
?gbump@?$basic_streambuf@DU?$char_traits@D@std@@@std@@IAEXH@Z=?decorated1395@@YGXXZ @1395
?gbump@?$basic_streambuf@GU?$char_traits@G@std@@@std@@IAEXH@Z=?decorated1396@@YGXXZ @1396
?gcount@?$basic_istream@DU?$char_traits@D@std@@@std@@QBEHXZ=?decorated1397@@YGXXZ @1397
?gcount@?$basic_istream@GU?$char_traits@G@std@@@std@@QBEHXZ=?decorated1398@@YGXXZ @1398
?get@?$basic_istream@DU?$char_traits@D@std@@@std@@QAEAAV12@AAD@Z=?decorated1399@@YGXXZ @1399
?get@?$basic_istream@DU?$char_traits@D@std@@@std@@QAEAAV12@AAV?$basic_streambuf@DU?$char_traits@D@std@@@2@@Z=?decorated1400@@YGXXZ @1400
?get@?$basic_istream@DU?$char_traits@D@std@@@std@@QAEAAV12@AAV?$basic_streambuf@DU?$char_traits@D@std@@@2@D@Z=?decorated1401@@YGXXZ @1401
?get@?$basic_istream@DU?$char_traits@D@std@@@std@@QAEAAV12@PADH@Z=?decorated1402@@YGXXZ @1402
?get@?$basic_istream@DU?$char_traits@D@std@@@std@@QAEAAV12@PADHD@Z=?decorated1403@@YGXXZ @1403
?get@?$basic_istream@DU?$char_traits@D@std@@@std@@QAEHXZ=?decorated1404@@YGXXZ @1404
?get@?$basic_istream@GU?$char_traits@G@std@@@std@@QAEAAV12@AAG@Z=?decorated1405@@YGXXZ @1405
?get@?$basic_istream@GU?$char_traits@G@std@@@std@@QAEAAV12@AAV?$basic_streambuf@GU?$char_traits@G@std@@@2@@Z=?decorated1406@@YGXXZ @1406
?get@?$basic_istream@GU?$char_traits@G@std@@@std@@QAEAAV12@AAV?$basic_streambuf@GU?$char_traits@G@std@@@2@G@Z=?decorated1407@@YGXXZ @1407
?get@?$basic_istream@GU?$char_traits@G@std@@@std@@QAEAAV12@PAGH@Z=?decorated1408@@YGXXZ @1408
?get@?$basic_istream@GU?$char_traits@G@std@@@std@@QAEAAV12@PAGHG@Z=?decorated1409@@YGXXZ @1409
?get@?$basic_istream@GU?$char_traits@G@std@@@std@@QAEGXZ=?decorated1410@@YGXXZ @1410
?get@?$messages@D@std@@QBE?AV?$basic_string@DU?$char_traits@D@std@@V?$allocator@D@2@@2@HHHABV32@@Z=?decorated1411@@YGXXZ @1411
?get@?$messages@G@std@@QBE?AV?$basic_string@GU?$char_traits@G@std@@V?$allocator@G@2@@2@HHHABV32@@Z=?decorated1412@@YGXXZ @1412
?get@?$money_get@DV?$istreambuf_iterator@DU?$char_traits@D@std@@@std@@@std@@QBE?AV?$istreambuf_iterator@DU?$char_traits@D@std@@@2@V32@0_NAAVios_base@2@AAHAAO@Z=?decorated1413@@YGXXZ @1413
?get@?$money_get@DV?$istreambuf_iterator@DU?$char_traits@D@std@@@std@@@std@@QBE?AV?$istreambuf_iterator@DU?$char_traits@D@std@@@2@V32@0_NAAVios_base@2@AAHAAV?$basic_string@DU?$char_traits@D@std@@V?$allocator@D@2@@2@@Z=?decorated1414@@YGXXZ @1414
?get@?$money_get@GV?$istreambuf_iterator@GU?$char_traits@G@std@@@std@@@std@@QBE?AV?$istreambuf_iterator@GU?$char_traits@G@std@@@2@V32@0_NAAVios_base@2@AAHAAO@Z=?decorated1415@@YGXXZ @1415
?get@?$money_get@GV?$istreambuf_iterator@GU?$char_traits@G@std@@@std@@@std@@QBE?AV?$istreambuf_iterator@GU?$char_traits@G@std@@@2@V32@0_NAAVios_base@2@AAHAAV?$basic_string@GU?$char_traits@G@std@@V?$allocator@G@2@@2@@Z=?decorated1416@@YGXXZ @1416
?get@?$num_get@DV?$istreambuf_iterator@DU?$char_traits@D@std@@@std@@@std@@QBE?AV?$istreambuf_iterator@DU?$char_traits@D@std@@@2@V32@0AAVios_base@2@AAHAA_N@Z=?decorated1425@@YGXXZ @1425
?get@?$num_get@DV?$istreambuf_iterator@DU?$char_traits@D@std@@@std@@@std@@QBE?AV?$istreambuf_iterator@DU?$char_traits@D@std@@@2@V32@0AAVios_base@2@AAHAAG@Z=?decorated1417@@YGXXZ @1417
?get@?$num_get@DV?$istreambuf_iterator@DU?$char_traits@D@std@@@std@@@std@@QBE?AV?$istreambuf_iterator@DU?$char_traits@D@std@@@2@V32@0AAVios_base@2@AAHAAI@Z=?decorated1418@@YGXXZ @1418
?get@?$num_get@DV?$istreambuf_iterator@DU?$char_traits@D@std@@@std@@@std@@QBE?AV?$istreambuf_iterator@DU?$char_traits@D@std@@@2@V32@0AAVios_base@2@AAHAAJ@Z=?decorated1419@@YGXXZ @1419
?get@?$num_get@DV?$istreambuf_iterator@DU?$char_traits@D@std@@@std@@@std@@QBE?AV?$istreambuf_iterator@DU?$char_traits@D@std@@@2@V32@0AAVios_base@2@AAHAAK@Z=?decorated1420@@YGXXZ @1420
?get@?$num_get@DV?$istreambuf_iterator@DU?$char_traits@D@std@@@std@@@std@@QBE?AV?$istreambuf_iterator@DU?$char_traits@D@std@@@2@V32@0AAVios_base@2@AAHAAM@Z=?decorated1421@@YGXXZ @1421
?get@?$num_get@DV?$istreambuf_iterator@DU?$char_traits@D@std@@@std@@@std@@QBE?AV?$istreambuf_iterator@DU?$char_traits@D@std@@@2@V32@0AAVios_base@2@AAHAAN@Z=?decorated1422@@YGXXZ @1422
?get@?$num_get@DV?$istreambuf_iterator@DU?$char_traits@D@std@@@std@@@std@@QBE?AV?$istreambuf_iterator@DU?$char_traits@D@std@@@2@V32@0AAVios_base@2@AAHAAO@Z=?decorated1423@@YGXXZ @1423
?get@?$num_get@DV?$istreambuf_iterator@DU?$char_traits@D@std@@@std@@@std@@QBE?AV?$istreambuf_iterator@DU?$char_traits@D@std@@@2@V32@0AAVios_base@2@AAHAAPAX@Z=?decorated1424@@YGXXZ @1424
?get@?$num_get@GV?$istreambuf_iterator@GU?$char_traits@G@std@@@std@@@std@@QBE?AV?$istreambuf_iterator@GU?$char_traits@G@std@@@2@V32@0AAVios_base@2@AAHAA_N@Z=?decorated1434@@YGXXZ @1434
?get@?$num_get@GV?$istreambuf_iterator@GU?$char_traits@G@std@@@std@@@std@@QBE?AV?$istreambuf_iterator@GU?$char_traits@G@std@@@2@V32@0AAVios_base@2@AAHAAG@Z=?decorated1426@@YGXXZ @1426
?get@?$num_get@GV?$istreambuf_iterator@GU?$char_traits@G@std@@@std@@@std@@QBE?AV?$istreambuf_iterator@GU?$char_traits@G@std@@@2@V32@0AAVios_base@2@AAHAAI@Z=?decorated1427@@YGXXZ @1427
?get@?$num_get@GV?$istreambuf_iterator@GU?$char_traits@G@std@@@std@@@std@@QBE?AV?$istreambuf_iterator@GU?$char_traits@G@std@@@2@V32@0AAVios_base@2@AAHAAJ@Z=?decorated1428@@YGXXZ @1428
?get@?$num_get@GV?$istreambuf_iterator@GU?$char_traits@G@std@@@std@@@std@@QBE?AV?$istreambuf_iterator@GU?$char_traits@G@std@@@2@V32@0AAVios_base@2@AAHAAK@Z=?decorated1429@@YGXXZ @1429
?get@?$num_get@GV?$istreambuf_iterator@GU?$char_traits@G@std@@@std@@@std@@QBE?AV?$istreambuf_iterator@GU?$char_traits@G@std@@@2@V32@0AAVios_base@2@AAHAAM@Z=?decorated1430@@YGXXZ @1430
?get@?$num_get@GV?$istreambuf_iterator@GU?$char_traits@G@std@@@std@@@std@@QBE?AV?$istreambuf_iterator@GU?$char_traits@G@std@@@2@V32@0AAVios_base@2@AAHAAN@Z=?decorated1431@@YGXXZ @1431
?get@?$num_get@GV?$istreambuf_iterator@GU?$char_traits@G@std@@@std@@@std@@QBE?AV?$istreambuf_iterator@GU?$char_traits@G@std@@@2@V32@0AAVios_base@2@AAHAAO@Z=?decorated1432@@YGXXZ @1432
?get@?$num_get@GV?$istreambuf_iterator@GU?$char_traits@G@std@@@std@@@std@@QBE?AV?$istreambuf_iterator@GU?$char_traits@G@std@@@2@V32@0AAVios_base@2@AAHAAPAX@Z=?decorated1433@@YGXXZ @1433
?get_allocator@?$basic_string@DU?$char_traits@D@std@@V?$allocator@D@2@@std@@QBE?AV?$allocator@D@2@XZ=?decorated1435@@YGXXZ @1435
?get_allocator@?$basic_string@GU?$char_traits@G@std@@V?$allocator@G@2@@std@@QBE?AV?$allocator@G@2@XZ=?decorated1436@@YGXXZ @1436
?get_date@?$time_get@DV?$istreambuf_iterator@DU?$char_traits@D@std@@@std@@@std@@QBE?AV?$istreambuf_iterator@DU?$char_traits@D@std@@@2@V32@0AAVios_base@2@AAHPAUtm@@@Z=?decorated1437@@YGXXZ @1437
?get_date@?$time_get@GV?$istreambuf_iterator@GU?$char_traits@G@std@@@std@@@std@@QBE?AV?$istreambuf_iterator@GU?$char_traits@G@std@@@2@V32@0AAVios_base@2@AAHPAUtm@@@Z=?decorated1438@@YGXXZ @1438
?get_monthname@?$time_get@DV?$istreambuf_iterator@DU?$char_traits@D@std@@@std@@@std@@QBE?AV?$istreambuf_iterator@DU?$char_traits@D@std@@@2@V32@0AAVios_base@2@AAHPAUtm@@@Z=?decorated1439@@YGXXZ @1439
?get_monthname@?$time_get@GV?$istreambuf_iterator@GU?$char_traits@G@std@@@std@@@std@@QBE?AV?$istreambuf_iterator@GU?$char_traits@G@std@@@2@V32@0AAVios_base@2@AAHPAUtm@@@Z=?decorated1440@@YGXXZ @1440
?get_time@?$time_get@DV?$istreambuf_iterator@DU?$char_traits@D@std@@@std@@@std@@QBE?AV?$istreambuf_iterator@DU?$char_traits@D@std@@@2@V32@0AAVios_base@2@AAHPAUtm@@@Z=?decorated1441@@YGXXZ @1441
?get_time@?$time_get@GV?$istreambuf_iterator@GU?$char_traits@G@std@@@std@@@std@@QBE?AV?$istreambuf_iterator@GU?$char_traits@G@std@@@2@V32@0AAVios_base@2@AAHPAUtm@@@Z=?decorated1442@@YGXXZ @1442
?get_weekday@?$time_get@DV?$istreambuf_iterator@DU?$char_traits@D@std@@@std@@@std@@QBE?AV?$istreambuf_iterator@DU?$char_traits@D@std@@@2@V32@0AAVios_base@2@AAHPAUtm@@@Z=?decorated1443@@YGXXZ @1443
?get_weekday@?$time_get@GV?$istreambuf_iterator@GU?$char_traits@G@std@@@std@@@std@@QBE?AV?$istreambuf_iterator@GU?$char_traits@G@std@@@2@V32@0AAVios_base@2@AAHPAUtm@@@Z=?decorated1444@@YGXXZ @1444
?get_year@?$time_get@DV?$istreambuf_iterator@DU?$char_traits@D@std@@@std@@@std@@QBE?AV?$istreambuf_iterator@DU?$char_traits@D@std@@@2@V32@0AAVios_base@2@AAHPAUtm@@@Z=?decorated1445@@YGXXZ @1445
?get_year@?$time_get@GV?$istreambuf_iterator@GU?$char_traits@G@std@@@std@@@std@@QBE?AV?$istreambuf_iterator@GU?$char_traits@G@std@@@2@V32@0AAVios_base@2@AAHPAUtm@@@Z=?decorated1446@@YGXXZ @1446
?getline@?$basic_istream@DU?$char_traits@D@std@@@std@@QAEAAV12@PADH@Z=?decorated1447@@YGXXZ @1447
?getline@?$basic_istream@DU?$char_traits@D@std@@@std@@QAEAAV12@PADHD@Z=?decorated1448@@YGXXZ @1448
?getline@?$basic_istream@GU?$char_traits@G@std@@@std@@QAEAAV12@PAGH@Z=?decorated1449@@YGXXZ @1449
?getline@?$basic_istream@GU?$char_traits@G@std@@@std@@QAEAAV12@PAGHG@Z=?decorated1450@@YGXXZ @1450
?getline@std@@YAAAV?$basic_istream@DU?$char_traits@D@std@@@1@AAV21@AAV?$basic_string@DU?$char_traits@D@std@@V?$allocator@D@2@@1@@Z=?decorated1451@@YGXXZ @1451
?getline@std@@YAAAV?$basic_istream@DU?$char_traits@D@std@@@1@AAV21@AAV?$basic_string@DU?$char_traits@D@std@@V?$allocator@D@2@@1@D@Z=?decorated1452@@YGXXZ @1452
?getline@std@@YAAAV?$basic_istream@GU?$char_traits@G@std@@@1@AAV21@AAV?$basic_string@GU?$char_traits@G@std@@V?$allocator@G@2@@1@@Z=?decorated1453@@YGXXZ @1453
?getline@std@@YAAAV?$basic_istream@GU?$char_traits@G@std@@@1@AAV21@AAV?$basic_string@GU?$char_traits@G@std@@V?$allocator@G@2@@1@G@Z=?decorated1454@@YGXXZ @1454
?getloc@?$basic_streambuf@DU?$char_traits@D@std@@@std@@QAE?AVlocale@2@XZ=?decorated1455@@YGXXZ @1455
?getloc@?$basic_streambuf@GU?$char_traits@G@std@@@std@@QAE?AVlocale@2@XZ=?decorated1456@@YGXXZ @1456
?getloc@ios_base@std@@QBE?AVlocale@2@XZ=?decorated1457@@YGXXZ @1457
?global@locale@std@@SA?AV12@ABV12@@Z=?decorated1458@@YGXXZ @1458
?good@ios_base@std@@QBE_NXZ=?decorated1459@@YGXXZ @1459
?gptr@?$basic_streambuf@DU?$char_traits@D@std@@@std@@IBEPADXZ=?decorated1460@@YGXXZ @1460
?gptr@?$basic_streambuf@GU?$char_traits@G@std@@@std@@IBEPAGXZ=?decorated1461@@YGXXZ @1461
?grouping@?$_Mpunct@D@std@@QBE?AV?$basic_string@DU?$char_traits@D@std@@V?$allocator@D@2@@2@XZ=?decorated1462@@YGXXZ @1462
?grouping@?$_Mpunct@G@std@@QBE?AV?$basic_string@DU?$char_traits@D@std@@V?$allocator@D@2@@2@XZ=?decorated1463@@YGXXZ @1463
?grouping@?$numpunct@D@std@@QBE?AV?$basic_string@DU?$char_traits@D@std@@V?$allocator@D@2@@2@XZ=?decorated1464@@YGXXZ @1464
?grouping@?$numpunct@G@std@@QBE?AV?$basic_string@DU?$char_traits@D@std@@V?$allocator@D@2@@2@XZ=?decorated1465@@YGXXZ @1465
?hash@?$collate@D@std@@QBEJPBD0@Z=?decorated1466@@YGXXZ @1466
?hash@?$collate@G@std@@QBEJPBG0@Z=?decorated1467@@YGXXZ @1467
?id@?$codecvt@DDH@std@@2V0locale@2@A=?decorated1468@@YGXXZ @1468
?id@?$codecvt@GDH@std@@2V0locale@2@A=?decorated1469@@YGXXZ @1469
?id@?$collate@D@std@@2V0locale@2@A=?decorated1470@@YGXXZ @1470
?id@?$collate@G@std@@2V0locale@2@A=?decorated1471@@YGXXZ @1471
?id@?$ctype@D@std@@2V0locale@2@A=?decorated1472@@YGXXZ @1472
?id@?$ctype@G@std@@2V0locale@2@A=?decorated1473@@YGXXZ @1473
?id@?$messages@D@std@@2V0locale@2@A=?decorated1474@@YGXXZ @1474
?id@?$messages@G@std@@2V0locale@2@A=?decorated1475@@YGXXZ @1475
?id@?$money_get@DV?$istreambuf_iterator@DU?$char_traits@D@std@@@std@@@std@@2V0locale@2@A=?decorated1476@@YGXXZ @1476
?id@?$money_get@GV?$istreambuf_iterator@GU?$char_traits@G@std@@@std@@@std@@2V0locale@2@A=?decorated1477@@YGXXZ @1477
?id@?$money_put@DV?$ostreambuf_iterator@DU?$char_traits@D@std@@@std@@@std@@2V0locale@2@A=?decorated1478@@YGXXZ @1478
?id@?$money_put@GV?$ostreambuf_iterator@GU?$char_traits@G@std@@@std@@@std@@2V0locale@2@A=?decorated1479@@YGXXZ @1479
?id@?$moneypunct@D$00@std@@2V0locale@2@A=?decorated1480@@YGXXZ @1480
?id@?$moneypunct@D$0A@@std@@2V0locale@2@A=?decorated1481@@YGXXZ @1481
?id@?$moneypunct@G$00@std@@2V0locale@2@A=?decorated1482@@YGXXZ @1482
?id@?$moneypunct@G$0A@@std@@2V0locale@2@A=?decorated1483@@YGXXZ @1483
?id@?$num_get@DV?$istreambuf_iterator@DU?$char_traits@D@std@@@std@@@std@@2V0locale@2@A=?decorated1484@@YGXXZ @1484
?id@?$num_get@GV?$istreambuf_iterator@GU?$char_traits@G@std@@@std@@@std@@2V0locale@2@A=?decorated1485@@YGXXZ @1485
?id@?$num_put@DV?$ostreambuf_iterator@DU?$char_traits@D@std@@@std@@@std@@2V0locale@2@A=?decorated1486@@YGXXZ @1486
?id@?$num_put@GV?$ostreambuf_iterator@GU?$char_traits@G@std@@@std@@@std@@2V0locale@2@A=?decorated1487@@YGXXZ @1487
?id@?$numpunct@D@std@@2V0locale@2@A=?decorated1488@@YGXXZ @1488
?id@?$numpunct@G@std@@2V0locale@2@A=?decorated1489@@YGXXZ @1489
?id@?$time_get@DV?$istreambuf_iterator@DU?$char_traits@D@std@@@std@@@std@@2V0locale@2@A=?decorated1490@@YGXXZ @1490
?id@?$time_get@GV?$istreambuf_iterator@GU?$char_traits@G@std@@@std@@@std@@2V0locale@2@A=?decorated1491@@YGXXZ @1491
?id@?$time_put@DV?$ostreambuf_iterator@DU?$char_traits@D@std@@@std@@@std@@2V0locale@2@A=?decorated1492@@YGXXZ @1492
?id@?$time_put@GV?$ostreambuf_iterator@GU?$char_traits@G@std@@@std@@@std@@2V0locale@2@A=?decorated1493@@YGXXZ @1493
?ignore@?$basic_istream@DU?$char_traits@D@std@@@std@@QAEAAV12@HH@Z=?decorated1494@@YGXXZ @1494
?ignore@?$basic_istream@GU?$char_traits@G@std@@@std@@QAEAAV12@HG@Z=?decorated1495@@YGXXZ @1495
?imag@?$_Complex_base@M@std@@QAEMABM@Z=?decorated1496@@YGXXZ @1496
?imag@?$_Complex_base@M@std@@QBEMXZ=?decorated1497@@YGXXZ @1497
?imag@?$_Complex_base@N@std@@QAENABN@Z=?decorated1498@@YGXXZ @1498
?imag@?$_Complex_base@N@std@@QBENXZ=?decorated1499@@YGXXZ @1499
?imag@?$_Complex_base@O@std@@QAEOABO@Z=?decorated1500@@YGXXZ @1500
?imag@?$_Complex_base@O@std@@QBEOXZ=?decorated1501@@YGXXZ @1501
?imag@std@@YAMABV?$complex@M@1@@Z=?decorated1502@@YGXXZ @1502
?imag@std@@YANABV?$complex@N@1@@Z=?decorated1503@@YGXXZ @1503
?imag@std@@YAOABV?$complex@O@1@@Z=?decorated1504@@YGXXZ @1504
?imbue@?$basic_ios@DU?$char_traits@D@std@@@std@@QAE?AVlocale@2@ABV32@@Z=?decorated1505@@YGXXZ @1505
?imbue@?$basic_ios@GU?$char_traits@G@std@@@std@@QAE?AVlocale@2@ABV32@@Z=?decorated1506@@YGXXZ @1506
?imbue@?$basic_streambuf@DU?$char_traits@D@std@@@std@@MAEXABVlocale@2@@Z=?decorated1507@@YGXXZ @1507
?imbue@?$basic_streambuf@GU?$char_traits@G@std@@@std@@MAEXABVlocale@2@@Z=?decorated1508@@YGXXZ @1508
?imbue@ios_base@std@@QAE?AVlocale@2@ABV32@@Z=?decorated1509@@YGXXZ @1509
?in@?$codecvt@DDH@std@@QBEHAAHPBD1AAPBDPAD3AAPAD@Z=?decorated1510@@YGXXZ @1510
?in@?$codecvt@GDH@std@@QBEHAAHPBD1AAPBDPAG3AAPAG@Z=?decorated1511@@YGXXZ @1511
?in_avail@?$basic_streambuf@DU?$char_traits@D@std@@@std@@QAEHXZ=?decorated1512@@YGXXZ @1512
?in_avail@?$basic_streambuf@GU?$char_traits@G@std@@@std@@QAEHXZ=?decorated1513@@YGXXZ @1513
?infinity@?$numeric_limits@_N@std@@SA_NXZ=?decorated1526@@YGXXZ @1526
?infinity@?$numeric_limits@C@std@@SACXZ=?decorated1514@@YGXXZ @1514
?infinity@?$numeric_limits@D@std@@SADXZ=?decorated1515@@YGXXZ @1515
?infinity@?$numeric_limits@E@std@@SAEXZ=?decorated1516@@YGXXZ @1516
?infinity@?$numeric_limits@F@std@@SAFXZ=?decorated1517@@YGXXZ @1517
?infinity@?$numeric_limits@G@std@@SAGXZ=?decorated1518@@YGXXZ @1518
?infinity@?$numeric_limits@H@std@@SAHXZ=?decorated1519@@YGXXZ @1519
?infinity@?$numeric_limits@I@std@@SAIXZ=?decorated1520@@YGXXZ @1520
?infinity@?$numeric_limits@J@std@@SAJXZ=?decorated1521@@YGXXZ @1521
?infinity@?$numeric_limits@K@std@@SAKXZ=?decorated1522@@YGXXZ @1522
?infinity@?$numeric_limits@M@std@@SAMXZ=?decorated1523@@YGXXZ @1523
?infinity@?$numeric_limits@N@std@@SANXZ=?decorated1524@@YGXXZ @1524
?infinity@?$numeric_limits@O@std@@SAOXZ=?decorated1525@@YGXXZ @1525
?init@?$basic_ios@DU?$char_traits@D@std@@@std@@IAEXPAV?$basic_streambuf@DU?$char_traits@D@std@@@2@_N@Z=?decorated1527@@YGXXZ @1527
?init@?$basic_ios@GU?$char_traits@G@std@@@std@@IAEXPAV?$basic_streambuf@GU?$char_traits@G@std@@@2@_N@Z=?decorated1528@@YGXXZ @1528
?insert@?$basic_string@DU?$char_traits@D@std@@V?$allocator@D@2@@std@@QAEAAV12@IABV12@@Z=?decorated1529@@YGXXZ @1529
?insert@?$basic_string@DU?$char_traits@D@std@@V?$allocator@D@2@@std@@QAEAAV12@IABV12@II@Z=?decorated1530@@YGXXZ @1530
?insert@?$basic_string@DU?$char_traits@D@std@@V?$allocator@D@2@@std@@QAEAAV12@IID@Z=?decorated1531@@YGXXZ @1531
?insert@?$basic_string@DU?$char_traits@D@std@@V?$allocator@D@2@@std@@QAEAAV12@IPBD@Z=?decorated1532@@YGXXZ @1532
?insert@?$basic_string@DU?$char_traits@D@std@@V?$allocator@D@2@@std@@QAEAAV12@IPBDI@Z=?decorated1533@@YGXXZ @1533
?insert@?$basic_string@DU?$char_traits@D@std@@V?$allocator@D@2@@std@@QAEPADPADD@Z=?decorated1534@@YGXXZ @1534
?insert@?$basic_string@DU?$char_traits@D@std@@V?$allocator@D@2@@std@@QAEXPADID@Z=?decorated1535@@YGXXZ @1535
?insert@?$basic_string@DU?$char_traits@D@std@@V?$allocator@D@2@@std@@QAEXPADPBD1@Z=?decorated1536@@YGXXZ @1536
?insert@?$basic_string@GU?$char_traits@G@std@@V?$allocator@G@2@@std@@QAEAAV12@IABV12@@Z=?decorated1537@@YGXXZ @1537
?insert@?$basic_string@GU?$char_traits@G@std@@V?$allocator@G@2@@std@@QAEAAV12@IABV12@II@Z=?decorated1538@@YGXXZ @1538
?insert@?$basic_string@GU?$char_traits@G@std@@V?$allocator@G@2@@std@@QAEAAV12@IIG@Z=?decorated1539@@YGXXZ @1539
?insert@?$basic_string@GU?$char_traits@G@std@@V?$allocator@G@2@@std@@QAEAAV12@IPBG@Z=?decorated1540@@YGXXZ @1540
?insert@?$basic_string@GU?$char_traits@G@std@@V?$allocator@G@2@@std@@QAEAAV12@IPBGI@Z=?decorated1541@@YGXXZ @1541
?insert@?$basic_string@GU?$char_traits@G@std@@V?$allocator@G@2@@std@@QAEPAGPAGG@Z=?decorated1542@@YGXXZ @1542
?insert@?$basic_string@GU?$char_traits@G@std@@V?$allocator@G@2@@std@@QAEXPAGIG@Z=?decorated1543@@YGXXZ @1543
?insert@?$basic_string@GU?$char_traits@G@std@@V?$allocator@G@2@@std@@QAEXPAGPBG1@Z=?decorated1544@@YGXXZ @1544
?intl@?$moneypunct@D$00@std@@2_NB=?decorated1545@@YGXXZ @1545
?intl@?$moneypunct@D$0A@@std@@2_NB=?decorated1546@@YGXXZ @1546
?intl@?$moneypunct@G$00@std@@2_NB=?decorated1547@@YGXXZ @1547
?intl@?$moneypunct@G$0A@@std@@2_NB=?decorated1548@@YGXXZ @1548
?ipfx@?$basic_istream@DU?$char_traits@D@std@@@std@@QAE_N_N@Z=?decorated1549@@YGXXZ @1549
?ipfx@?$basic_istream@GU?$char_traits@G@std@@@std@@QAE_N_N@Z=?decorated1550@@YGXXZ @1550
?is@?$ctype@D@std@@QBE_NFD@Z=?decorated1552@@YGXXZ @1552
?is@?$ctype@D@std@@QBEPBDPBD0PAF@Z=?decorated1551@@YGXXZ @1551
?is@?$ctype@G@std@@QBE_NFG@Z=?decorated1554@@YGXXZ @1554
?is@?$ctype@G@std@@QBEPBGPBG0PAF@Z=?decorated1553@@YGXXZ @1553
?is_open@?$basic_filebuf@DU?$char_traits@D@std@@@std@@QBE_NXZ=?decorated1555@@YGXXZ @1555
?is_open@?$basic_filebuf@GU?$char_traits@G@std@@@std@@QBE_NXZ=?decorated1556@@YGXXZ @1556
?is_open@?$basic_fstream@DU?$char_traits@D@std@@@std@@QBE_NXZ=?decorated1557@@YGXXZ @1557
?is_open@?$basic_fstream@GU?$char_traits@G@std@@@std@@QBE_NXZ=?decorated1558@@YGXXZ @1558
?is_open@?$basic_ifstream@DU?$char_traits@D@std@@@std@@QBE_NXZ=?decorated1559@@YGXXZ @1559
?is_open@?$basic_ifstream@GU?$char_traits@G@std@@@std@@QBE_NXZ=?decorated1560@@YGXXZ @1560
?is_open@?$basic_ofstream@DU?$char_traits@D@std@@@std@@QBE_NXZ=?decorated1561@@YGXXZ @1561
?is_open@?$basic_ofstream@GU?$char_traits@G@std@@@std@@QBE_NXZ=?decorated1562@@YGXXZ @1562
?isfx@?$basic_istream@DU?$char_traits@D@std@@@std@@QAEXXZ=?decorated1563@@YGXXZ @1563
?isfx@?$basic_istream@GU?$char_traits@G@std@@@std@@QAEXXZ=?decorated1564@@YGXXZ @1564
?iword@ios_base@std@@QAEAAJH@Z=?decorated1565@@YGXXZ @1565
?ldexp@?$_Ctr@M@std@@SAMMH@Z=?decorated1566@@YGXXZ @1566
?ldexp@?$_Ctr@N@std@@SANNH@Z=?decorated1567@@YGXXZ @1567
?ldexp@?$_Ctr@O@std@@SAOOH@Z=?decorated1568@@YGXXZ @1568
?length@?$basic_string@DU?$char_traits@D@std@@V?$allocator@D@2@@std@@QBEIXZ=?decorated1569@@YGXXZ @1569
?length@?$basic_string@GU?$char_traits@G@std@@V?$allocator@G@2@@std@@QBEIXZ=?decorated1570@@YGXXZ @1570
?length@?$char_traits@D@std@@SAIPBD@Z=?decorated1571@@YGXXZ @1571
?length@?$char_traits@G@std@@SAIPBG@Z=?decorated1572@@YGXXZ @1572
?length@?$codecvt@DDH@std@@QBEHAAHPBD1I@Z=?decorated1573@@YGXXZ @1573
?length@?$codecvt@GDH@std@@QBEHAAHPBG1I@Z=?decorated1574@@YGXXZ @1574
?log10@std@@YA?AV?$complex@M@1@ABV21@@Z=?decorated1575@@YGXXZ @1575
?log10@std@@YA?AV?$complex@N@1@ABV21@@Z=?decorated1576@@YGXXZ @1576
?log10@std@@YA?AV?$complex@O@1@ABV21@@Z=?decorated1577@@YGXXZ @1577
?log@?$_Ctr@M@std@@SAMM@Z=?decorated1578@@YGXXZ @1578
?log@?$_Ctr@N@std@@SANN@Z=?decorated1579@@YGXXZ @1579
?log@?$_Ctr@O@std@@SAOO@Z=?decorated1580@@YGXXZ @1580
?log@std@@YA?AV?$complex@M@1@ABV21@@Z=?decorated1581@@YGXXZ @1581
?log@std@@YA?AV?$complex@N@1@ABV21@@Z=?decorated1582@@YGXXZ @1582
?log@std@@YA?AV?$complex@O@1@ABV21@@Z=?decorated1583@@YGXXZ @1583
?lt@?$char_traits@D@std@@SA_NABD0@Z=?decorated1584@@YGXXZ @1584
?lt@?$char_traits@G@std@@SA_NABG0@Z=?decorated1585@@YGXXZ @1585
?max@?$numeric_limits@_N@std@@SA_NXZ=?decorated1598@@YGXXZ @1598
?max@?$numeric_limits@C@std@@SACXZ=?decorated1586@@YGXXZ @1586
?max@?$numeric_limits@D@std@@SADXZ=?decorated1587@@YGXXZ @1587
?max@?$numeric_limits@E@std@@SAEXZ=?decorated1588@@YGXXZ @1588
?max@?$numeric_limits@F@std@@SAFXZ=?decorated1589@@YGXXZ @1589
?max@?$numeric_limits@G@std@@SAGXZ=?decorated1590@@YGXXZ @1590
?max@?$numeric_limits@H@std@@SAHXZ=?decorated1591@@YGXXZ @1591
?max@?$numeric_limits@I@std@@SAIXZ=?decorated1592@@YGXXZ @1592
?max@?$numeric_limits@J@std@@SAJXZ=?decorated1593@@YGXXZ @1593
?max@?$numeric_limits@K@std@@SAKXZ=?decorated1594@@YGXXZ @1594
?max@?$numeric_limits@M@std@@SAMXZ=?decorated1595@@YGXXZ @1595
?max@?$numeric_limits@N@std@@SANXZ=?decorated1596@@YGXXZ @1596
?max@?$numeric_limits@O@std@@SAOXZ=?decorated1597@@YGXXZ @1597
?max_length@codecvt_base@std@@QBEHXZ=?decorated1599@@YGXXZ @1599
?max_size@?$basic_string@DU?$char_traits@D@std@@V?$allocator@D@2@@std@@QBEIXZ=?decorated1600@@YGXXZ @1600
?max_size@?$basic_string@GU?$char_traits@G@std@@V?$allocator@G@2@@std@@QBEIXZ=?decorated1601@@YGXXZ @1601
?min@?$numeric_limits@_N@std@@SA_NXZ=?decorated1614@@YGXXZ @1614
?min@?$numeric_limits@C@std@@SACXZ=?decorated1602@@YGXXZ @1602
?min@?$numeric_limits@D@std@@SADXZ=?decorated1603@@YGXXZ @1603
?min@?$numeric_limits@E@std@@SAEXZ=?decorated1604@@YGXXZ @1604
?min@?$numeric_limits@F@std@@SAFXZ=?decorated1605@@YGXXZ @1605
?min@?$numeric_limits@G@std@@SAGXZ=?decorated1606@@YGXXZ @1606
?min@?$numeric_limits@H@std@@SAHXZ=?decorated1607@@YGXXZ @1607
?min@?$numeric_limits@I@std@@SAIXZ=?decorated1608@@YGXXZ @1608
?min@?$numeric_limits@J@std@@SAJXZ=?decorated1609@@YGXXZ @1609
?min@?$numeric_limits@K@std@@SAKXZ=?decorated1610@@YGXXZ @1610
?min@?$numeric_limits@M@std@@SAMXZ=?decorated1611@@YGXXZ @1611
?min@?$numeric_limits@N@std@@SANXZ=?decorated1612@@YGXXZ @1612
?min@?$numeric_limits@O@std@@SAOXZ=?decorated1613@@YGXXZ @1613
?move@?$char_traits@D@std@@SAPADPADPBDI@Z=?decorated1615@@YGXXZ @1615
?move@?$char_traits@G@std@@SAPAGPAGPBGI@Z=?decorated1616@@YGXXZ @1616
?name@locale@std@@QBE?AV?$basic_string@DU?$char_traits@D@std@@V?$allocator@D@2@@2@XZ=?decorated1617@@YGXXZ @1617
?narrow@?$basic_ios@DU?$char_traits@D@std@@@std@@QBEDDD@Z=?decorated1618@@YGXXZ @1618
?narrow@?$basic_ios@GU?$char_traits@G@std@@@std@@QBEDGD@Z=?decorated1619@@YGXXZ @1619
?narrow@?$ctype@D@std@@QBEDDD@Z=?decorated1620@@YGXXZ @1620
?narrow@?$ctype@D@std@@QBEPBDPBD0DPAD@Z=?decorated1621@@YGXXZ @1621
?narrow@?$ctype@G@std@@QBEDGD@Z=?decorated1622@@YGXXZ @1622
?narrow@?$ctype@G@std@@QBEPBGPBG0DPAD@Z=?decorated1623@@YGXXZ @1623
?neg_format@?$_Mpunct@D@std@@QBE?AUpattern@money_base@2@XZ=?decorated1624@@YGXXZ @1624
?neg_format@?$_Mpunct@G@std@@QBE?AUpattern@money_base@2@XZ=?decorated1625@@YGXXZ @1625
?negative_sign@?$_Mpunct@D@std@@QBE?AV?$basic_string@DU?$char_traits@D@std@@V?$allocator@D@2@@2@XZ=?decorated1626@@YGXXZ @1626
?negative_sign@?$_Mpunct@G@std@@QBE?AV?$basic_string@GU?$char_traits@G@std@@V?$allocator@G@2@@2@XZ=?decorated1627@@YGXXZ @1627
?norm@std@@YAMABV?$complex@M@1@@Z=?decorated1628@@YGXXZ @1628
?norm@std@@YANABV?$complex@N@1@@Z=?decorated1629@@YGXXZ @1629
?norm@std@@YAOABV?$complex@O@1@@Z=?decorated1630@@YGXXZ @1630
?not_eof@?$char_traits@D@std@@SAHABH@Z=?decorated1631@@YGXXZ @1631
?not_eof@?$char_traits@G@std@@SAGABG@Z=?decorated1632@@YGXXZ @1632
?nothrow@std@@3Unothrow_t@1@B=?decorated1633@@YGXXZ @1633
?npos@?$basic_string@DU?$char_traits@D@std@@V?$allocator@D@2@@std@@2IB=?decorated1634@@YGXXZ @1634
?npos@?$basic_string@GU?$char_traits@G@std@@V?$allocator@G@2@@std@@2IB=?decorated1635@@YGXXZ @1635
?open@?$basic_filebuf@DU?$char_traits@D@std@@@std@@QAEPAV12@PBDF@Z=?decorated1636@@YGXXZ @1636
?open@?$basic_filebuf@DU?$char_traits@D@std@@@std@@QAEPAV12@PBDH@Z=?decorated1637@@YGXXZ @1637
?open@?$basic_filebuf@GU?$char_traits@G@std@@@std@@QAEPAV12@PBDF@Z=?decorated1638@@YGXXZ @1638
?open@?$basic_filebuf@GU?$char_traits@G@std@@@std@@QAEPAV12@PBDH@Z=?decorated1639@@YGXXZ @1639
?open@?$basic_fstream@DU?$char_traits@D@std@@@std@@QAEXPBDF@Z=?decorated1640@@YGXXZ @1640
?open@?$basic_fstream@DU?$char_traits@D@std@@@std@@QAEXPBDH@Z=?decorated1641@@YGXXZ @1641
?open@?$basic_fstream@GU?$char_traits@G@std@@@std@@QAEXPBDF@Z=?decorated1642@@YGXXZ @1642
?open@?$basic_fstream@GU?$char_traits@G@std@@@std@@QAEXPBDH@Z=?decorated1643@@YGXXZ @1643
?open@?$basic_ifstream@DU?$char_traits@D@std@@@std@@QAEXPBDF@Z=?decorated1644@@YGXXZ @1644
?open@?$basic_ifstream@DU?$char_traits@D@std@@@std@@QAEXPBDH@Z=?decorated1645@@YGXXZ @1645
?open@?$basic_ifstream@GU?$char_traits@G@std@@@std@@QAEXPBDF@Z=?decorated1646@@YGXXZ @1646
?open@?$basic_ifstream@GU?$char_traits@G@std@@@std@@QAEXPBDH@Z=?decorated1647@@YGXXZ @1647
?open@?$basic_ofstream@DU?$char_traits@D@std@@@std@@QAEXPBDF@Z=?decorated1648@@YGXXZ @1648
?open@?$basic_ofstream@DU?$char_traits@D@std@@@std@@QAEXPBDH@Z=?decorated1649@@YGXXZ @1649
?open@?$basic_ofstream@GU?$char_traits@G@std@@@std@@QAEXPBDF@Z=?decorated1650@@YGXXZ @1650
?open@?$basic_ofstream@GU?$char_traits@G@std@@@std@@QAEXPBDH@Z=?decorated1651@@YGXXZ @1651
?open@?$messages@D@std@@QBEHABV?$basic_string@DU?$char_traits@D@std@@V?$allocator@D@2@@2@ABVlocale@2@@Z=?decorated1652@@YGXXZ @1652
?open@?$messages@G@std@@QBEHABV?$basic_string@DU?$char_traits@D@std@@V?$allocator@D@2@@2@ABVlocale@2@@Z=?decorated1653@@YGXXZ @1653
?opfx@?$basic_ostream@DU?$char_traits@D@std@@@std@@QAE_NXZ=?decorated1654@@YGXXZ @1654
?opfx@?$basic_ostream@GU?$char_traits@G@std@@@std@@QAE_NXZ=?decorated1655@@YGXXZ @1655
?osfx@?$basic_ostream@DU?$char_traits@D@std@@@std@@QAEXXZ=?decorated1656@@YGXXZ @1656
?osfx@?$basic_ostream@GU?$char_traits@G@std@@@std@@QAEXXZ=?decorated1657@@YGXXZ @1657
?out@?$codecvt@DDH@std@@QBEHAAHPBD1AAPBDPAD3AAPAD@Z=?decorated1658@@YGXXZ @1658
?out@?$codecvt@GDH@std@@QBEHAAHPBG1AAPBGPAD3AAPAD@Z=?decorated1659@@YGXXZ @1659
?overflow@?$basic_filebuf@DU?$char_traits@D@std@@@std@@MAEHH@Z=?decorated1660@@YGXXZ @1660
?overflow@?$basic_filebuf@GU?$char_traits@G@std@@@std@@MAEGG@Z=?decorated1661@@YGXXZ @1661
?overflow@?$basic_streambuf@DU?$char_traits@D@std@@@std@@MAEHH@Z=?decorated1662@@YGXXZ @1662
?overflow@?$basic_streambuf@GU?$char_traits@G@std@@@std@@MAEGG@Z=?decorated1663@@YGXXZ @1663
?overflow@?$basic_stringbuf@DU?$char_traits@D@std@@V?$allocator@D@2@@std@@MAEHH@Z=?decorated1664@@YGXXZ @1664
?overflow@?$basic_stringbuf@GU?$char_traits@G@std@@V?$allocator@G@2@@std@@MAEGG@Z=?decorated1665@@YGXXZ @1665
?overflow@strstreambuf@std@@MAEHH@Z=?decorated1666@@YGXXZ @1666
?pbackfail@?$basic_filebuf@DU?$char_traits@D@std@@@std@@MAEHH@Z=?decorated1667@@YGXXZ @1667
?pbackfail@?$basic_filebuf@GU?$char_traits@G@std@@@std@@MAEGG@Z=?decorated1668@@YGXXZ @1668
?pbackfail@?$basic_streambuf@DU?$char_traits@D@std@@@std@@MAEHH@Z=?decorated1669@@YGXXZ @1669
?pbackfail@?$basic_streambuf@GU?$char_traits@G@std@@@std@@MAEGG@Z=?decorated1670@@YGXXZ @1670
?pbackfail@?$basic_stringbuf@DU?$char_traits@D@std@@V?$allocator@D@2@@std@@MAEHH@Z=?decorated1671@@YGXXZ @1671
?pbackfail@?$basic_stringbuf@GU?$char_traits@G@std@@V?$allocator@G@2@@std@@MAEGG@Z=?decorated1672@@YGXXZ @1672
?pbackfail@strstreambuf@std@@MAEHH@Z=?decorated1673@@YGXXZ @1673
?pbase@?$basic_streambuf@DU?$char_traits@D@std@@@std@@IBEPADXZ=?decorated1674@@YGXXZ @1674
?pbase@?$basic_streambuf@GU?$char_traits@G@std@@@std@@IBEPAGXZ=?decorated1675@@YGXXZ @1675
?pbump@?$basic_streambuf@DU?$char_traits@D@std@@@std@@IAEXH@Z=?decorated1676@@YGXXZ @1676
?pbump@?$basic_streambuf@GU?$char_traits@G@std@@@std@@IAEXH@Z=?decorated1677@@YGXXZ @1677
?peek@?$basic_istream@DU?$char_traits@D@std@@@std@@QAEHXZ=?decorated1678@@YGXXZ @1678
?peek@?$basic_istream@GU?$char_traits@G@std@@@std@@QAEGXZ=?decorated1679@@YGXXZ @1679
?polar@std@@YA?AV?$complex@M@1@ABM0@Z=?decorated1680@@YGXXZ @1680
?polar@std@@YA?AV?$complex@M@1@ABM@Z=?decorated1681@@YGXXZ @1681
?polar@std@@YA?AV?$complex@N@1@ABN0@Z=?decorated1682@@YGXXZ @1682
?polar@std@@YA?AV?$complex@N@1@ABN@Z=?decorated1683@@YGXXZ @1683
?polar@std@@YA?AV?$complex@O@1@ABO0@Z=?decorated1684@@YGXXZ @1684
?polar@std@@YA?AV?$complex@O@1@ABO@Z=?decorated1685@@YGXXZ @1685
?pos_format@?$_Mpunct@D@std@@QBE?AUpattern@money_base@2@XZ=?decorated1686@@YGXXZ @1686
?pos_format@?$_Mpunct@G@std@@QBE?AUpattern@money_base@2@XZ=?decorated1687@@YGXXZ @1687
?positive_sign@?$_Mpunct@D@std@@QBE?AV?$basic_string@DU?$char_traits@D@std@@V?$allocator@D@2@@2@XZ=?decorated1688@@YGXXZ @1688
?positive_sign@?$_Mpunct@G@std@@QBE?AV?$basic_string@GU?$char_traits@G@std@@V?$allocator@G@2@@2@XZ=?decorated1689@@YGXXZ @1689
?pow@?$_Ctr@M@std@@SAMMM@Z=?decorated1690@@YGXXZ @1690
?pow@?$_Ctr@N@std@@SANNN@Z=?decorated1691@@YGXXZ @1691
?pow@?$_Ctr@O@std@@SAOOO@Z=?decorated1692@@YGXXZ @1692
?pow@std@@YA?AV?$complex@M@1@ABMABV21@@Z=?decorated1693@@YGXXZ @1693
?pow@std@@YA?AV?$complex@M@1@ABV21@0@Z=?decorated1694@@YGXXZ @1694
?pow@std@@YA?AV?$complex@M@1@ABV21@ABM@Z=?decorated1695@@YGXXZ @1695
?pow@std@@YA?AV?$complex@M@1@ABV21@H@Z=?decorated1696@@YGXXZ @1696
?pow@std@@YA?AV?$complex@N@1@ABNABV21@@Z=?decorated1697@@YGXXZ @1697
?pow@std@@YA?AV?$complex@N@1@ABV21@0@Z=?decorated1698@@YGXXZ @1698
?pow@std@@YA?AV?$complex@N@1@ABV21@ABN@Z=?decorated1699@@YGXXZ @1699
?pow@std@@YA?AV?$complex@N@1@ABV21@H@Z=?decorated1700@@YGXXZ @1700
?pow@std@@YA?AV?$complex@O@1@ABOABV21@@Z=?decorated1701@@YGXXZ @1701
?pow@std@@YA?AV?$complex@O@1@ABV21@0@Z=?decorated1702@@YGXXZ @1702
?pow@std@@YA?AV?$complex@O@1@ABV21@ABO@Z=?decorated1703@@YGXXZ @1703
?pow@std@@YA?AV?$complex@O@1@ABV21@H@Z=?decorated1704@@YGXXZ @1704
?pptr@?$basic_streambuf@DU?$char_traits@D@std@@@std@@IBEPADXZ=?decorated1705@@YGXXZ @1705
?pptr@?$basic_streambuf@GU?$char_traits@G@std@@@std@@IBEPAGXZ=?decorated1706@@YGXXZ @1706
?precision@ios_base@std@@QAEHH@Z=?decorated1707@@YGXXZ @1707
?precision@ios_base@std@@QBEHXZ=?decorated1708@@YGXXZ @1708
?pubimbue@?$basic_streambuf@DU?$char_traits@D@std@@@std@@QAE?AVlocale@2@ABV32@@Z=?decorated1709@@YGXXZ @1709
?pubimbue@?$basic_streambuf@GU?$char_traits@G@std@@@std@@QAE?AVlocale@2@ABV32@@Z=?decorated1710@@YGXXZ @1710
?pubseekoff@?$basic_streambuf@DU?$char_traits@D@std@@@std@@QAE?AV?$fpos@H@2@JFF@Z=?decorated1711@@YGXXZ @1711
?pubseekoff@?$basic_streambuf@DU?$char_traits@D@std@@@std@@QAE?AV?$fpos@H@2@JW4seekdir@ios_base@2@H@Z=?decorated1712@@YGXXZ @1712
?pubseekoff@?$basic_streambuf@GU?$char_traits@G@std@@@std@@QAE?AV?$fpos@H@2@JFF@Z=?decorated1713@@YGXXZ @1713
?pubseekoff@?$basic_streambuf@GU?$char_traits@G@std@@@std@@QAE?AV?$fpos@H@2@JW4seekdir@ios_base@2@H@Z=?decorated1714@@YGXXZ @1714
?pubseekpos@?$basic_streambuf@DU?$char_traits@D@std@@@std@@QAE?AV?$fpos@H@2@V32@F@Z=?decorated1715@@YGXXZ @1715
?pubseekpos@?$basic_streambuf@DU?$char_traits@D@std@@@std@@QAE?AV?$fpos@H@2@V32@H@Z=?decorated1716@@YGXXZ @1716
?pubseekpos@?$basic_streambuf@GU?$char_traits@G@std@@@std@@QAE?AV?$fpos@H@2@V32@F@Z=?decorated1717@@YGXXZ @1717
?pubseekpos@?$basic_streambuf@GU?$char_traits@G@std@@@std@@QAE?AV?$fpos@H@2@V32@H@Z=?decorated1718@@YGXXZ @1718
?pubsetbuf@?$basic_streambuf@DU?$char_traits@D@std@@@std@@QAEPAV12@PADH@Z=?decorated1719@@YGXXZ @1719
?pubsetbuf@?$basic_streambuf@GU?$char_traits@G@std@@@std@@QAEPAV12@PAGH@Z=?decorated1720@@YGXXZ @1720
?pubsync@?$basic_streambuf@DU?$char_traits@D@std@@@std@@QAEHXZ=?decorated1721@@YGXXZ @1721
?pubsync@?$basic_streambuf@GU?$char_traits@G@std@@@std@@QAEHXZ=?decorated1722@@YGXXZ @1722
?put@?$basic_ostream@DU?$char_traits@D@std@@@std@@QAEAAV12@D@Z=?decorated1723@@YGXXZ @1723
?put@?$basic_ostream@GU?$char_traits@G@std@@@std@@QAEAAV12@G@Z=?decorated1724@@YGXXZ @1724
?put@?$money_put@DV?$ostreambuf_iterator@DU?$char_traits@D@std@@@std@@@std@@QBE?AV?$ostreambuf_iterator@DU?$char_traits@D@std@@@2@V32@_NAAVios_base@2@DABV?$basic_string@DU?$char_traits@D@std@@V?$allocator@D@2@@2@@Z=?decorated1725@@YGXXZ @1725
?put@?$money_put@DV?$ostreambuf_iterator@DU?$char_traits@D@std@@@std@@@std@@QBE?AV?$ostreambuf_iterator@DU?$char_traits@D@std@@@2@V32@_NAAVios_base@2@DO@Z=?decorated1726@@YGXXZ @1726
?put@?$money_put@GV?$ostreambuf_iterator@GU?$char_traits@G@std@@@std@@@std@@QBE?AV?$ostreambuf_iterator@GU?$char_traits@G@std@@@2@V32@_NAAVios_base@2@GABV?$basic_string@GU?$char_traits@G@std@@V?$allocator@G@2@@2@@Z=?decorated1727@@YGXXZ @1727
?put@?$money_put@GV?$ostreambuf_iterator@GU?$char_traits@G@std@@@std@@@std@@QBE?AV?$ostreambuf_iterator@GU?$char_traits@G@std@@@2@V32@_NAAVios_base@2@GO@Z=?decorated1728@@YGXXZ @1728
?put@?$num_put@DV?$ostreambuf_iterator@DU?$char_traits@D@std@@@std@@@std@@QBE?AV?$ostreambuf_iterator@DU?$char_traits@D@std@@@2@V32@AAVios_base@2@D_N@Z=?decorated1734@@YGXXZ @1734
?put@?$num_put@DV?$ostreambuf_iterator@DU?$char_traits@D@std@@@std@@@std@@QBE?AV?$ostreambuf_iterator@DU?$char_traits@D@std@@@2@V32@AAVios_base@2@DJ@Z=?decorated1729@@YGXXZ @1729
?put@?$num_put@DV?$ostreambuf_iterator@DU?$char_traits@D@std@@@std@@@std@@QBE?AV?$ostreambuf_iterator@DU?$char_traits@D@std@@@2@V32@AAVios_base@2@DK@Z=?decorated1730@@YGXXZ @1730
?put@?$num_put@DV?$ostreambuf_iterator@DU?$char_traits@D@std@@@std@@@std@@QBE?AV?$ostreambuf_iterator@DU?$char_traits@D@std@@@2@V32@AAVios_base@2@DN@Z=?decorated1731@@YGXXZ @1731
?put@?$num_put@DV?$ostreambuf_iterator@DU?$char_traits@D@std@@@std@@@std@@QBE?AV?$ostreambuf_iterator@DU?$char_traits@D@std@@@2@V32@AAVios_base@2@DO@Z=?decorated1732@@YGXXZ @1732
?put@?$num_put@DV?$ostreambuf_iterator@DU?$char_traits@D@std@@@std@@@std@@QBE?AV?$ostreambuf_iterator@DU?$char_traits@D@std@@@2@V32@AAVios_base@2@DPBX@Z=?decorated1733@@YGXXZ @1733
?put@?$num_put@GV?$ostreambuf_iterator@GU?$char_traits@G@std@@@std@@@std@@QBE?AV?$ostreambuf_iterator@GU?$char_traits@G@std@@@2@V32@AAVios_base@2@G_N@Z=?decorated1740@@YGXXZ @1740
?put@?$num_put@GV?$ostreambuf_iterator@GU?$char_traits@G@std@@@std@@@std@@QBE?AV?$ostreambuf_iterator@GU?$char_traits@G@std@@@2@V32@AAVios_base@2@GJ@Z=?decorated1735@@YGXXZ @1735
?put@?$num_put@GV?$ostreambuf_iterator@GU?$char_traits@G@std@@@std@@@std@@QBE?AV?$ostreambuf_iterator@GU?$char_traits@G@std@@@2@V32@AAVios_base@2@GK@Z=?decorated1736@@YGXXZ @1736
?put@?$num_put@GV?$ostreambuf_iterator@GU?$char_traits@G@std@@@std@@@std@@QBE?AV?$ostreambuf_iterator@GU?$char_traits@G@std@@@2@V32@AAVios_base@2@GN@Z=?decorated1737@@YGXXZ @1737
?put@?$num_put@GV?$ostreambuf_iterator@GU?$char_traits@G@std@@@std@@@std@@QBE?AV?$ostreambuf_iterator@GU?$char_traits@G@std@@@2@V32@AAVios_base@2@GO@Z=?decorated1738@@YGXXZ @1738
?put@?$num_put@GV?$ostreambuf_iterator@GU?$char_traits@G@std@@@std@@@std@@QBE?AV?$ostreambuf_iterator@GU?$char_traits@G@std@@@2@V32@AAVios_base@2@GPBX@Z=?decorated1739@@YGXXZ @1739
?put@?$time_put@DV?$ostreambuf_iterator@DU?$char_traits@D@std@@@std@@@std@@QBE?AV?$ostreambuf_iterator@DU?$char_traits@D@std@@@2@V32@AAVios_base@2@PBUtm@@DD@Z=?decorated1741@@YGXXZ @1741
?put@?$time_put@DV?$ostreambuf_iterator@DU?$char_traits@D@std@@@std@@@std@@QBE?AV?$ostreambuf_iterator@DU?$char_traits@D@std@@@2@V32@AAVios_base@2@PBUtm@@PBD3@Z=?decorated1742@@YGXXZ @1742
?put@?$time_put@GV?$ostreambuf_iterator@GU?$char_traits@G@std@@@std@@@std@@QBE?AV?$ostreambuf_iterator@GU?$char_traits@G@std@@@2@V32@AAVios_base@2@PBUtm@@DD@Z=?decorated1743@@YGXXZ @1743
?put@?$time_put@GV?$ostreambuf_iterator@GU?$char_traits@G@std@@@std@@@std@@QBE?AV?$ostreambuf_iterator@GU?$char_traits@G@std@@@2@V32@AAVios_base@2@PBUtm@@PBG3@Z=?decorated1744@@YGXXZ @1744
?putback@?$basic_istream@DU?$char_traits@D@std@@@std@@QAEAAV12@D@Z=?decorated1745@@YGXXZ @1745
?putback@?$basic_istream@GU?$char_traits@G@std@@@std@@QAEAAV12@G@Z=?decorated1746@@YGXXZ @1746
?pword@ios_base@std@@QAEAAPAXH@Z=?decorated1747@@YGXXZ @1747
?quiet_NaN@?$numeric_limits@_N@std@@SA_NXZ=?decorated1760@@YGXXZ @1760
?quiet_NaN@?$numeric_limits@C@std@@SACXZ=?decorated1748@@YGXXZ @1748
?quiet_NaN@?$numeric_limits@D@std@@SADXZ=?decorated1749@@YGXXZ @1749
?quiet_NaN@?$numeric_limits@E@std@@SAEXZ=?decorated1750@@YGXXZ @1750
?quiet_NaN@?$numeric_limits@F@std@@SAFXZ=?decorated1751@@YGXXZ @1751
?quiet_NaN@?$numeric_limits@G@std@@SAGXZ=?decorated1752@@YGXXZ @1752
?quiet_NaN@?$numeric_limits@H@std@@SAHXZ=?decorated1753@@YGXXZ @1753
?quiet_NaN@?$numeric_limits@I@std@@SAIXZ=?decorated1754@@YGXXZ @1754
?quiet_NaN@?$numeric_limits@J@std@@SAJXZ=?decorated1755@@YGXXZ @1755
?quiet_NaN@?$numeric_limits@K@std@@SAKXZ=?decorated1756@@YGXXZ @1756
?quiet_NaN@?$numeric_limits@M@std@@SAMXZ=?decorated1757@@YGXXZ @1757
?quiet_NaN@?$numeric_limits@N@std@@SANXZ=?decorated1758@@YGXXZ @1758
?quiet_NaN@?$numeric_limits@O@std@@SAOXZ=?decorated1759@@YGXXZ @1759
?rbegin@?$basic_string@DU?$char_traits@D@std@@V?$allocator@D@2@@std@@QAE?AV?$reverse_iterator@PADDAADPADH@2@XZ=?decorated1761@@YGXXZ @1761
?rbegin@?$basic_string@DU?$char_traits@D@std@@V?$allocator@D@2@@std@@QBE?AV?$reverse_iterator@PBDDABDPBDH@2@XZ=?decorated1762@@YGXXZ @1762
?rbegin@?$basic_string@GU?$char_traits@G@std@@V?$allocator@G@2@@std@@QAE?AV?$reverse_iterator@PAGGAAGPAGH@2@XZ=?decorated1763@@YGXXZ @1763
?rbegin@?$basic_string@GU?$char_traits@G@std@@V?$allocator@G@2@@std@@QBE?AV?$reverse_iterator@PBGGABGPBGH@2@XZ=?decorated1764@@YGXXZ @1764
?rdbuf@?$basic_fstream@DU?$char_traits@D@std@@@std@@QBEPAV?$basic_filebuf@DU?$char_traits@D@std@@@2@XZ=?decorated1765@@YGXXZ @1765
?rdbuf@?$basic_fstream@GU?$char_traits@G@std@@@std@@QBEPAV?$basic_filebuf@GU?$char_traits@G@std@@@2@XZ=?decorated1766@@YGXXZ @1766
?rdbuf@?$basic_ifstream@DU?$char_traits@D@std@@@std@@QBEPAV?$basic_filebuf@DU?$char_traits@D@std@@@2@XZ=?decorated1767@@YGXXZ @1767
?rdbuf@?$basic_ifstream@GU?$char_traits@G@std@@@std@@QBEPAV?$basic_filebuf@GU?$char_traits@G@std@@@2@XZ=?decorated1768@@YGXXZ @1768
?rdbuf@?$basic_ios@DU?$char_traits@D@std@@@std@@QAEPAV?$basic_streambuf@DU?$char_traits@D@std@@@2@PAV32@@Z=?decorated1769@@YGXXZ @1769
?rdbuf@?$basic_ios@DU?$char_traits@D@std@@@std@@QBEPAV?$basic_streambuf@DU?$char_traits@D@std@@@2@XZ=?decorated1770@@YGXXZ @1770
?rdbuf@?$basic_ios@GU?$char_traits@G@std@@@std@@QAEPAV?$basic_streambuf@GU?$char_traits@G@std@@@2@PAV32@@Z=?decorated1771@@YGXXZ @1771
?rdbuf@?$basic_ios@GU?$char_traits@G@std@@@std@@QBEPAV?$basic_streambuf@GU?$char_traits@G@std@@@2@XZ=?decorated1772@@YGXXZ @1772
?rdbuf@?$basic_istringstream@DU?$char_traits@D@std@@V?$allocator@D@2@@std@@QBEPAV?$basic_stringbuf@DU?$char_traits@D@std@@V?$allocator@D@2@@2@XZ=?decorated1773@@YGXXZ @1773
?rdbuf@?$basic_istringstream@GU?$char_traits@G@std@@V?$allocator@G@2@@std@@QBEPAV?$basic_stringbuf@GU?$char_traits@G@std@@V?$allocator@G@2@@2@XZ=?decorated1774@@YGXXZ @1774
?rdbuf@?$basic_ofstream@DU?$char_traits@D@std@@@std@@QBEPAV?$basic_filebuf@DU?$char_traits@D@std@@@2@XZ=?decorated1775@@YGXXZ @1775
?rdbuf@?$basic_ofstream@GU?$char_traits@G@std@@@std@@QBEPAV?$basic_filebuf@GU?$char_traits@G@std@@@2@XZ=?decorated1776@@YGXXZ @1776
?rdbuf@?$basic_ostringstream@DU?$char_traits@D@std@@V?$allocator@D@2@@std@@QBEPAV?$basic_stringbuf@DU?$char_traits@D@std@@V?$allocator@D@2@@2@XZ=?decorated1777@@YGXXZ @1777
?rdbuf@?$basic_ostringstream@GU?$char_traits@G@std@@V?$allocator@G@2@@std@@QBEPAV?$basic_stringbuf@GU?$char_traits@G@std@@V?$allocator@G@2@@2@XZ=?decorated1778@@YGXXZ @1778
?rdbuf@?$basic_stringstream@DU?$char_traits@D@std@@V?$allocator@D@2@@std@@QBEPAV?$basic_stringbuf@DU?$char_traits@D@std@@V?$allocator@D@2@@2@XZ=?decorated1779@@YGXXZ @1779
?rdbuf@?$basic_stringstream@GU?$char_traits@G@std@@V?$allocator@G@2@@std@@QBEPAV?$basic_stringbuf@GU?$char_traits@G@std@@V?$allocator@G@2@@2@XZ=?decorated1780@@YGXXZ @1780
?rdstate@ios_base@std@@QBEHXZ=?decorated1781@@YGXXZ @1781
?read@?$basic_istream@DU?$char_traits@D@std@@@std@@QAEAAV12@PADH@Z=?decorated1782@@YGXXZ @1782
?read@?$basic_istream@GU?$char_traits@G@std@@@std@@QAEAAV12@PAGH@Z=?decorated1783@@YGXXZ @1783
?readsome@?$basic_istream@DU?$char_traits@D@std@@@std@@QAEHPADH@Z=?decorated1784@@YGXXZ @1784
?readsome@?$basic_istream@GU?$char_traits@G@std@@@std@@QAEHPAGH@Z=?decorated1785@@YGXXZ @1785
?real@?$_Complex_base@M@std@@QAEMABM@Z=?decorated1786@@YGXXZ @1786
?real@?$_Complex_base@M@std@@QBEMXZ=?decorated1787@@YGXXZ @1787
?real@?$_Complex_base@N@std@@QAENABN@Z=?decorated1788@@YGXXZ @1788
?real@?$_Complex_base@N@std@@QBENXZ=?decorated1789@@YGXXZ @1789
?real@?$_Complex_base@O@std@@QAEOABO@Z=?decorated1790@@YGXXZ @1790
?real@?$_Complex_base@O@std@@QBEOXZ=?decorated1791@@YGXXZ @1791
?real@std@@YAMABV?$complex@M@1@@Z=?decorated1792@@YGXXZ @1792
?real@std@@YANABV?$complex@N@1@@Z=?decorated1793@@YGXXZ @1793
?real@std@@YAOABV?$complex@O@1@@Z=?decorated1794@@YGXXZ @1794
?register_callback@ios_base@std@@QAEXP6AXW4event@12@AAV12@H@ZH@Z=?decorated1795@@YGXXZ @1795
?rend@?$basic_string@DU?$char_traits@D@std@@V?$allocator@D@2@@std@@QAE?AV?$reverse_iterator@PADDAADPADH@2@XZ=?decorated1796@@YGXXZ @1796
?rend@?$basic_string@DU?$char_traits@D@std@@V?$allocator@D@2@@std@@QBE?AV?$reverse_iterator@PBDDABDPBDH@2@XZ=?decorated1797@@YGXXZ @1797
?rend@?$basic_string@GU?$char_traits@G@std@@V?$allocator@G@2@@std@@QAE?AV?$reverse_iterator@PAGGAAGPAGH@2@XZ=?decorated1798@@YGXXZ @1798
?rend@?$basic_string@GU?$char_traits@G@std@@V?$allocator@G@2@@std@@QBE?AV?$reverse_iterator@PBGGABGPBGH@2@XZ=?decorated1799@@YGXXZ @1799
?replace@?$basic_string@DU?$char_traits@D@std@@V?$allocator@D@2@@std@@QAEAAV12@IIABV12@@Z=?decorated1800@@YGXXZ @1800
?replace@?$basic_string@DU?$char_traits@D@std@@V?$allocator@D@2@@std@@QAEAAV12@IIABV12@II@Z=?decorated1801@@YGXXZ @1801
?replace@?$basic_string@DU?$char_traits@D@std@@V?$allocator@D@2@@std@@QAEAAV12@IIID@Z=?decorated1802@@YGXXZ @1802
?replace@?$basic_string@DU?$char_traits@D@std@@V?$allocator@D@2@@std@@QAEAAV12@IIPBD@Z=?decorated1803@@YGXXZ @1803
?replace@?$basic_string@DU?$char_traits@D@std@@V?$allocator@D@2@@std@@QAEAAV12@IIPBDI@Z=?decorated1804@@YGXXZ @1804
?replace@?$basic_string@DU?$char_traits@D@std@@V?$allocator@D@2@@std@@QAEAAV12@PAD0ABV12@@Z=?decorated1805@@YGXXZ @1805
?replace@?$basic_string@DU?$char_traits@D@std@@V?$allocator@D@2@@std@@QAEAAV12@PAD0ID@Z=?decorated1806@@YGXXZ @1806
?replace@?$basic_string@DU?$char_traits@D@std@@V?$allocator@D@2@@std@@QAEAAV12@PAD0PBD1@Z=?decorated1807@@YGXXZ @1807
?replace@?$basic_string@DU?$char_traits@D@std@@V?$allocator@D@2@@std@@QAEAAV12@PAD0PBD@Z=?decorated1808@@YGXXZ @1808
?replace@?$basic_string@DU?$char_traits@D@std@@V?$allocator@D@2@@std@@QAEAAV12@PAD0PBDI@Z=?decorated1809@@YGXXZ @1809
?replace@?$basic_string@GU?$char_traits@G@std@@V?$allocator@G@2@@std@@QAEAAV12@IIABV12@@Z=?decorated1810@@YGXXZ @1810
?replace@?$basic_string@GU?$char_traits@G@std@@V?$allocator@G@2@@std@@QAEAAV12@IIABV12@II@Z=?decorated1811@@YGXXZ @1811
?replace@?$basic_string@GU?$char_traits@G@std@@V?$allocator@G@2@@std@@QAEAAV12@IIIG@Z=?decorated1812@@YGXXZ @1812
?replace@?$basic_string@GU?$char_traits@G@std@@V?$allocator@G@2@@std@@QAEAAV12@IIPBG@Z=?decorated1813@@YGXXZ @1813
?replace@?$basic_string@GU?$char_traits@G@std@@V?$allocator@G@2@@std@@QAEAAV12@IIPBGI@Z=?decorated1814@@YGXXZ @1814
?replace@?$basic_string@GU?$char_traits@G@std@@V?$allocator@G@2@@std@@QAEAAV12@PAG0ABV12@@Z=?decorated1815@@YGXXZ @1815
?replace@?$basic_string@GU?$char_traits@G@std@@V?$allocator@G@2@@std@@QAEAAV12@PAG0IG@Z=?decorated1816@@YGXXZ @1816
?replace@?$basic_string@GU?$char_traits@G@std@@V?$allocator@G@2@@std@@QAEAAV12@PAG0PBG1@Z=?decorated1817@@YGXXZ @1817
?replace@?$basic_string@GU?$char_traits@G@std@@V?$allocator@G@2@@std@@QAEAAV12@PAG0PBG@Z=?decorated1818@@YGXXZ @1818
?replace@?$basic_string@GU?$char_traits@G@std@@V?$allocator@G@2@@std@@QAEAAV12@PAG0PBGI@Z=?decorated1819@@YGXXZ @1819
?reserve@?$basic_string@DU?$char_traits@D@std@@V?$allocator@D@2@@std@@QAEXI@Z=?decorated1820@@YGXXZ @1820
?reserve@?$basic_string@GU?$char_traits@G@std@@V?$allocator@G@2@@std@@QAEXI@Z=?decorated1821@@YGXXZ @1821
?resetiosflags@std@@YA?AU?$_Smanip@H@1@H@Z=?decorated1822@@YGXXZ @1822
?resize@?$basic_string@DU?$char_traits@D@std@@V?$allocator@D@2@@std@@QAEXI@Z=?decorated1823@@YGXXZ @1823
?resize@?$basic_string@DU?$char_traits@D@std@@V?$allocator@D@2@@std@@QAEXID@Z=?decorated1824@@YGXXZ @1824
?resize@?$basic_string@GU?$char_traits@G@std@@V?$allocator@G@2@@std@@QAEXI@Z=?decorated1825@@YGXXZ @1825
?resize@?$basic_string@GU?$char_traits@G@std@@V?$allocator@G@2@@std@@QAEXIG@Z=?decorated1826@@YGXXZ @1826
?rfind@?$basic_string@DU?$char_traits@D@std@@V?$allocator@D@2@@std@@QBEIABV12@I@Z=?decorated1827@@YGXXZ @1827
?rfind@?$basic_string@DU?$char_traits@D@std@@V?$allocator@D@2@@std@@QBEIDI@Z=?decorated1828@@YGXXZ @1828
?rfind@?$basic_string@DU?$char_traits@D@std@@V?$allocator@D@2@@std@@QBEIPBDI@Z=?decorated1829@@YGXXZ @1829
?rfind@?$basic_string@DU?$char_traits@D@std@@V?$allocator@D@2@@std@@QBEIPBDII@Z=?decorated1830@@YGXXZ @1830
?rfind@?$basic_string@GU?$char_traits@G@std@@V?$allocator@G@2@@std@@QBEIABV12@I@Z=?decorated1831@@YGXXZ @1831
?rfind@?$basic_string@GU?$char_traits@G@std@@V?$allocator@G@2@@std@@QBEIGI@Z=?decorated1832@@YGXXZ @1832
?rfind@?$basic_string@GU?$char_traits@G@std@@V?$allocator@G@2@@std@@QBEIPBGI@Z=?decorated1833@@YGXXZ @1833
?rfind@?$basic_string@GU?$char_traits@G@std@@V?$allocator@G@2@@std@@QBEIPBGII@Z=?decorated1834@@YGXXZ @1834
?round_error@?$numeric_limits@_N@std@@SA_NXZ=?decorated1847@@YGXXZ @1847
?round_error@?$numeric_limits@C@std@@SACXZ=?decorated1835@@YGXXZ @1835
?round_error@?$numeric_limits@D@std@@SADXZ=?decorated1836@@YGXXZ @1836
?round_error@?$numeric_limits@E@std@@SAEXZ=?decorated1837@@YGXXZ @1837
?round_error@?$numeric_limits@F@std@@SAFXZ=?decorated1838@@YGXXZ @1838
?round_error@?$numeric_limits@G@std@@SAGXZ=?decorated1839@@YGXXZ @1839
?round_error@?$numeric_limits@H@std@@SAHXZ=?decorated1840@@YGXXZ @1840
?round_error@?$numeric_limits@I@std@@SAIXZ=?decorated1841@@YGXXZ @1841
?round_error@?$numeric_limits@J@std@@SAJXZ=?decorated1842@@YGXXZ @1842
?round_error@?$numeric_limits@K@std@@SAKXZ=?decorated1843@@YGXXZ @1843
?round_error@?$numeric_limits@M@std@@SAMXZ=?decorated1844@@YGXXZ @1844
?round_error@?$numeric_limits@N@std@@SANXZ=?decorated1845@@YGXXZ @1845
?round_error@?$numeric_limits@O@std@@SAOXZ=?decorated1846@@YGXXZ @1846
?sbumpc@?$basic_streambuf@DU?$char_traits@D@std@@@std@@QAEHXZ=?decorated1848@@YGXXZ @1848
?sbumpc@?$basic_streambuf@GU?$char_traits@G@std@@@std@@QAEGXZ=?decorated1849@@YGXXZ @1849
?scan_is@?$ctype@D@std@@QBEPBDFPBD0@Z=?decorated1850@@YGXXZ @1850
?scan_is@?$ctype@G@std@@QBEPBGFPBG0@Z=?decorated1851@@YGXXZ @1851
?scan_not@?$ctype@D@std@@QBEPBDFPBD0@Z=?decorated1852@@YGXXZ @1852
?scan_not@?$ctype@G@std@@QBEPBGFPBG0@Z=?decorated1853@@YGXXZ @1853
?seekg@?$basic_istream@DU?$char_traits@D@std@@@std@@QAEAAV12@JW4seekdir@ios_base@2@@Z=?decorated1854@@YGXXZ @1854
?seekg@?$basic_istream@DU?$char_traits@D@std@@@std@@QAEAAV12@V?$fpos@H@2@@Z=?decorated1855@@YGXXZ @1855
?seekg@?$basic_istream@GU?$char_traits@G@std@@@std@@QAEAAV12@JW4seekdir@ios_base@2@@Z=?decorated1856@@YGXXZ @1856
?seekg@?$basic_istream@GU?$char_traits@G@std@@@std@@QAEAAV12@V?$fpos@H@2@@Z=?decorated1857@@YGXXZ @1857
?seekoff@?$basic_filebuf@DU?$char_traits@D@std@@@std@@MAE?AV?$fpos@H@2@JW4seekdir@ios_base@2@H@Z=?decorated1858@@YGXXZ @1858
?seekoff@?$basic_filebuf@GU?$char_traits@G@std@@@std@@MAE?AV?$fpos@H@2@JW4seekdir@ios_base@2@H@Z=?decorated1859@@YGXXZ @1859
?seekoff@?$basic_streambuf@DU?$char_traits@D@std@@@std@@MAE?AV?$fpos@H@2@JW4seekdir@ios_base@2@H@Z=?decorated1860@@YGXXZ @1860
?seekoff@?$basic_streambuf@GU?$char_traits@G@std@@@std@@MAE?AV?$fpos@H@2@JW4seekdir@ios_base@2@H@Z=?decorated1861@@YGXXZ @1861
?seekoff@?$basic_stringbuf@DU?$char_traits@D@std@@V?$allocator@D@2@@std@@MAE?AV?$fpos@H@2@JW4seekdir@ios_base@2@H@Z=?decorated1862@@YGXXZ @1862
?seekoff@?$basic_stringbuf@GU?$char_traits@G@std@@V?$allocator@G@2@@std@@MAE?AV?$fpos@H@2@JW4seekdir@ios_base@2@H@Z=?decorated1863@@YGXXZ @1863
?seekoff@strstreambuf@std@@MAE?AV?$fpos@H@2@JW4seekdir@ios_base@2@H@Z=?decorated1864@@YGXXZ @1864
?seekp@?$basic_ostream@DU?$char_traits@D@std@@@std@@QAEAAV12@JW4seekdir@ios_base@2@@Z=?decorated1865@@YGXXZ @1865
?seekp@?$basic_ostream@DU?$char_traits@D@std@@@std@@QAEAAV12@V?$fpos@H@2@@Z=?decorated1866@@YGXXZ @1866
?seekp@?$basic_ostream@GU?$char_traits@G@std@@@std@@QAEAAV12@JW4seekdir@ios_base@2@@Z=?decorated1867@@YGXXZ @1867
?seekp@?$basic_ostream@GU?$char_traits@G@std@@@std@@QAEAAV12@V?$fpos@H@2@@Z=?decorated1868@@YGXXZ @1868
?seekpos@?$basic_filebuf@DU?$char_traits@D@std@@@std@@MAE?AV?$fpos@H@2@V32@H@Z=?decorated1869@@YGXXZ @1869
?seekpos@?$basic_filebuf@GU?$char_traits@G@std@@@std@@MAE?AV?$fpos@H@2@V32@H@Z=?decorated1870@@YGXXZ @1870
?seekpos@?$basic_streambuf@DU?$char_traits@D@std@@@std@@MAE?AV?$fpos@H@2@V32@H@Z=?decorated1871@@YGXXZ @1871
?seekpos@?$basic_streambuf@GU?$char_traits@G@std@@@std@@MAE?AV?$fpos@H@2@V32@H@Z=?decorated1872@@YGXXZ @1872
?seekpos@?$basic_stringbuf@DU?$char_traits@D@std@@V?$allocator@D@2@@std@@MAE?AV?$fpos@H@2@V32@H@Z=?decorated1873@@YGXXZ @1873
?seekpos@?$basic_stringbuf@GU?$char_traits@G@std@@V?$allocator@G@2@@std@@MAE?AV?$fpos@H@2@V32@H@Z=?decorated1874@@YGXXZ @1874
?seekpos@strstreambuf@std@@MAE?AV?$fpos@H@2@V32@H@Z=?decorated1875@@YGXXZ @1875
?setbase@std@@YA?AU?$_Smanip@H@1@H@Z=?decorated1876@@YGXXZ @1876
?setbuf@?$basic_filebuf@DU?$char_traits@D@std@@@std@@MAEPAV?$basic_streambuf@DU?$char_traits@D@std@@@2@PADH@Z=?decorated1877@@YGXXZ @1877
?setbuf@?$basic_filebuf@GU?$char_traits@G@std@@@std@@MAEPAV?$basic_streambuf@GU?$char_traits@G@std@@@2@PAGH@Z=?decorated1878@@YGXXZ @1878
?setbuf@?$basic_streambuf@DU?$char_traits@D@std@@@std@@MAEPAV12@PADH@Z=?decorated1879@@YGXXZ @1879
?setbuf@?$basic_streambuf@GU?$char_traits@G@std@@@std@@MAEPAV12@PAGH@Z=?decorated1880@@YGXXZ @1880
?setf@ios_base@std@@QAEHH@Z=?decorated1881@@YGXXZ @1881
?setf@ios_base@std@@QAEHHH@Z=?decorated1882@@YGXXZ @1882
?setg@?$basic_streambuf@DU?$char_traits@D@std@@@std@@IAEXPAD00@Z=?decorated1883@@YGXXZ @1883
?setg@?$basic_streambuf@GU?$char_traits@G@std@@@std@@IAEXPAG00@Z=?decorated1884@@YGXXZ @1884
?setiosflags@std@@YA?AU?$_Smanip@H@1@H@Z=?decorated1885@@YGXXZ @1885
?setp@?$basic_streambuf@DU?$char_traits@D@std@@@std@@IAEXPAD00@Z=?decorated1886@@YGXXZ @1886
?setp@?$basic_streambuf@DU?$char_traits@D@std@@@std@@IAEXPAD0@Z=?decorated1887@@YGXXZ @1887
?setp@?$basic_streambuf@GU?$char_traits@G@std@@@std@@IAEXPAG00@Z=?decorated1888@@YGXXZ @1888
?setp@?$basic_streambuf@GU?$char_traits@G@std@@@std@@IAEXPAG0@Z=?decorated1889@@YGXXZ @1889
?setprecision@std@@YA?AU?$_Smanip@H@1@H@Z=?decorated1890@@YGXXZ @1890
?setstate@?$basic_ios@DU?$char_traits@D@std@@@std@@QAEXF@Z=?decorated1891@@YGXXZ @1891
?setstate@?$basic_ios@DU?$char_traits@D@std@@@std@@QAEXH_N@Z=?decorated1892@@YGXXZ @1892
?setstate@?$basic_ios@GU?$char_traits@G@std@@@std@@QAEXF@Z=?decorated1893@@YGXXZ @1893
?setstate@?$basic_ios@GU?$char_traits@G@std@@@std@@QAEXH_N@Z=?decorated1894@@YGXXZ @1894
?setstate@ios_base@std@@QAEXF@Z=?decorated1895@@YGXXZ @1895
?setstate@ios_base@std@@QAEXH_N@Z=?decorated1896@@YGXXZ @1896
?setw@std@@YA?AU?$_Smanip@H@1@H@Z=?decorated1897@@YGXXZ @1897
?sgetc@?$basic_streambuf@DU?$char_traits@D@std@@@std@@QAEHXZ=?decorated1898@@YGXXZ @1898
?sgetc@?$basic_streambuf@GU?$char_traits@G@std@@@std@@QAEGXZ=?decorated1899@@YGXXZ @1899
?sgetn@?$basic_streambuf@DU?$char_traits@D@std@@@std@@QAEHPADH@Z=?decorated1900@@YGXXZ @1900
?sgetn@?$basic_streambuf@GU?$char_traits@G@std@@@std@@QAEHPAGH@Z=?decorated1901@@YGXXZ @1901
?showmanyc@?$basic_streambuf@DU?$char_traits@D@std@@@std@@MAEHXZ=?decorated1902@@YGXXZ @1902
?showmanyc@?$basic_streambuf@GU?$char_traits@G@std@@@std@@MAEHXZ=?decorated1903@@YGXXZ @1903
?signaling_NaN@?$numeric_limits@_N@std@@SA_NXZ=?decorated1916@@YGXXZ @1916
?signaling_NaN@?$numeric_limits@C@std@@SACXZ=?decorated1904@@YGXXZ @1904
?signaling_NaN@?$numeric_limits@D@std@@SADXZ=?decorated1905@@YGXXZ @1905
?signaling_NaN@?$numeric_limits@E@std@@SAEXZ=?decorated1906@@YGXXZ @1906
?signaling_NaN@?$numeric_limits@F@std@@SAFXZ=?decorated1907@@YGXXZ @1907
?signaling_NaN@?$numeric_limits@G@std@@SAGXZ=?decorated1908@@YGXXZ @1908
?signaling_NaN@?$numeric_limits@H@std@@SAHXZ=?decorated1909@@YGXXZ @1909
?signaling_NaN@?$numeric_limits@I@std@@SAIXZ=?decorated1910@@YGXXZ @1910
?signaling_NaN@?$numeric_limits@J@std@@SAJXZ=?decorated1911@@YGXXZ @1911
?signaling_NaN@?$numeric_limits@K@std@@SAKXZ=?decorated1912@@YGXXZ @1912
?signaling_NaN@?$numeric_limits@M@std@@SAMXZ=?decorated1913@@YGXXZ @1913
?signaling_NaN@?$numeric_limits@N@std@@SANXZ=?decorated1914@@YGXXZ @1914
?signaling_NaN@?$numeric_limits@O@std@@SAOXZ=?decorated1915@@YGXXZ @1915
?sin@?$_Ctr@M@std@@SAMM@Z=?decorated1917@@YGXXZ @1917
?sin@?$_Ctr@N@std@@SANN@Z=?decorated1918@@YGXXZ @1918
?sin@?$_Ctr@O@std@@SAOO@Z=?decorated1919@@YGXXZ @1919
?sin@std@@YA?AV?$complex@M@1@ABV21@@Z=?decorated1920@@YGXXZ @1920
?sin@std@@YA?AV?$complex@N@1@ABV21@@Z=?decorated1921@@YGXXZ @1921
?sin@std@@YA?AV?$complex@O@1@ABV21@@Z=?decorated1922@@YGXXZ @1922
?sinh@std@@YA?AV?$complex@M@1@ABV21@@Z=?decorated1923@@YGXXZ @1923
?sinh@std@@YA?AV?$complex@N@1@ABV21@@Z=?decorated1924@@YGXXZ @1924
?sinh@std@@YA?AV?$complex@O@1@ABV21@@Z=?decorated1925@@YGXXZ @1925
?size@?$basic_string@DU?$char_traits@D@std@@V?$allocator@D@2@@std@@QBEIXZ=?decorated1926@@YGXXZ @1926
?size@?$basic_string@GU?$char_traits@G@std@@V?$allocator@G@2@@std@@QBEIXZ=?decorated1927@@YGXXZ @1927
?snextc@?$basic_streambuf@DU?$char_traits@D@std@@@std@@QAEHXZ=?decorated1928@@YGXXZ @1928
?snextc@?$basic_streambuf@GU?$char_traits@G@std@@@std@@QAEGXZ=?decorated1929@@YGXXZ @1929
?sputbackc@?$basic_streambuf@DU?$char_traits@D@std@@@std@@QAEHD@Z=?decorated1930@@YGXXZ @1930
?sputbackc@?$basic_streambuf@GU?$char_traits@G@std@@@std@@QAEGG@Z=?decorated1931@@YGXXZ @1931
?sputc@?$basic_streambuf@DU?$char_traits@D@std@@@std@@QAEHD@Z=?decorated1932@@YGXXZ @1932
?sputc@?$basic_streambuf@GU?$char_traits@G@std@@@std@@QAEGG@Z=?decorated1933@@YGXXZ @1933
?sputn@?$basic_streambuf@DU?$char_traits@D@std@@@std@@QAEHPBDH@Z=?decorated1934@@YGXXZ @1934
?sputn@?$basic_streambuf@GU?$char_traits@G@std@@@std@@QAEHPBGH@Z=?decorated1935@@YGXXZ @1935
?sqrt@?$_Ctr@M@std@@SAMM@Z=?decorated1936@@YGXXZ @1936
?sqrt@?$_Ctr@N@std@@SANN@Z=?decorated1937@@YGXXZ @1937
?sqrt@?$_Ctr@O@std@@SAOO@Z=?decorated1938@@YGXXZ @1938
?sqrt@std@@YA?AV?$complex@M@1@ABV21@@Z=?decorated1939@@YGXXZ @1939
?sqrt@std@@YA?AV?$complex@N@1@ABV21@@Z=?decorated1940@@YGXXZ @1940
?sqrt@std@@YA?AV?$complex@O@1@ABV21@@Z=?decorated1941@@YGXXZ @1941
?stossc@?$basic_streambuf@DU?$char_traits@D@std@@@std@@QAEXXZ=?decorated1942@@YGXXZ @1942
?stossc@?$basic_streambuf@GU?$char_traits@G@std@@@std@@QAEXXZ=?decorated1943@@YGXXZ @1943
?str@?$basic_istringstream@DU?$char_traits@D@std@@V?$allocator@D@2@@std@@QAEXABV?$basic_string@DU?$char_traits@D@std@@V?$allocator@D@2@@2@@Z=?decorated1944@@YGXXZ @1944
?str@?$basic_istringstream@DU?$char_traits@D@std@@V?$allocator@D@2@@std@@QBE?AV?$basic_string@DU?$char_traits@D@std@@V?$allocator@D@2@@2@XZ=?decorated1945@@YGXXZ @1945
?str@?$basic_istringstream@GU?$char_traits@G@std@@V?$allocator@G@2@@std@@QAEXABV?$basic_string@GU?$char_traits@G@std@@V?$allocator@G@2@@2@@Z=?decorated1946@@YGXXZ @1946
?str@?$basic_istringstream@GU?$char_traits@G@std@@V?$allocator@G@2@@std@@QBE?AV?$basic_string@GU?$char_traits@G@std@@V?$allocator@G@2@@2@XZ=?decorated1947@@YGXXZ @1947
?str@?$basic_ostringstream@DU?$char_traits@D@std@@V?$allocator@D@2@@std@@QAEXABV?$basic_string@DU?$char_traits@D@std@@V?$allocator@D@2@@2@@Z=?decorated1948@@YGXXZ @1948
?str@?$basic_ostringstream@DU?$char_traits@D@std@@V?$allocator@D@2@@std@@QBE?AV?$basic_string@DU?$char_traits@D@std@@V?$allocator@D@2@@2@XZ=?decorated1949@@YGXXZ @1949
?str@?$basic_ostringstream@GU?$char_traits@G@std@@V?$allocator@G@2@@std@@QAEXABV?$basic_string@GU?$char_traits@G@std@@V?$allocator@G@2@@2@@Z=?decorated1950@@YGXXZ @1950
?str@?$basic_ostringstream@GU?$char_traits@G@std@@V?$allocator@G@2@@std@@QBE?AV?$basic_string@GU?$char_traits@G@std@@V?$allocator@G@2@@2@XZ=?decorated1951@@YGXXZ @1951
?str@?$basic_stringbuf@DU?$char_traits@D@std@@V?$allocator@D@2@@std@@QAEXABV?$basic_string@DU?$char_traits@D@std@@V?$allocator@D@2@@2@@Z=?decorated1952@@YGXXZ @1952
?str@?$basic_stringbuf@DU?$char_traits@D@std@@V?$allocator@D@2@@std@@QBE?AV?$basic_string@DU?$char_traits@D@std@@V?$allocator@D@2@@2@XZ=?decorated1953@@YGXXZ @1953
?str@?$basic_stringbuf@GU?$char_traits@G@std@@V?$allocator@G@2@@std@@QAEXABV?$basic_string@GU?$char_traits@G@std@@V?$allocator@G@2@@2@@Z=?decorated1954@@YGXXZ @1954
?str@?$basic_stringbuf@GU?$char_traits@G@std@@V?$allocator@G@2@@std@@QBE?AV?$basic_string@GU?$char_traits@G@std@@V?$allocator@G@2@@2@XZ=?decorated1955@@YGXXZ @1955
?str@?$basic_stringstream@DU?$char_traits@D@std@@V?$allocator@D@2@@std@@QAEXABV?$basic_string@DU?$char_traits@D@std@@V?$allocator@D@2@@2@@Z=?decorated1956@@YGXXZ @1956
?str@?$basic_stringstream@DU?$char_traits@D@std@@V?$allocator@D@2@@std@@QBE?AV?$basic_string@DU?$char_traits@D@std@@V?$allocator@D@2@@2@XZ=?decorated1957@@YGXXZ @1957
?str@?$basic_stringstream@GU?$char_traits@G@std@@V?$allocator@G@2@@std@@QAEXABV?$basic_string@GU?$char_traits@G@std@@V?$allocator@G@2@@2@@Z=?decorated1958@@YGXXZ @1958
?str@?$basic_stringstream@GU?$char_traits@G@std@@V?$allocator@G@2@@std@@QBE?AV?$basic_string@GU?$char_traits@G@std@@V?$allocator@G@2@@2@XZ=?decorated1959@@YGXXZ @1959
?substr@?$basic_string@DU?$char_traits@D@std@@V?$allocator@D@2@@std@@QBE?AV12@II@Z=?decorated1960@@YGXXZ @1960
?substr@?$basic_string@GU?$char_traits@G@std@@V?$allocator@G@2@@std@@QBE?AV12@II@Z=?decorated1961@@YGXXZ @1961
?sungetc@?$basic_streambuf@DU?$char_traits@D@std@@@std@@QAEHXZ=?decorated1962@@YGXXZ @1962
?sungetc@?$basic_streambuf@GU?$char_traits@G@std@@@std@@QAEGXZ=?decorated1963@@YGXXZ @1963
?swap@?$basic_string@DU?$char_traits@D@std@@V?$allocator@D@2@@std@@QAEXAAV12@@Z=?decorated1964@@YGXXZ @1964
?swap@?$basic_string@GU?$char_traits@G@std@@V?$allocator@G@2@@std@@QAEXAAV12@@Z=?decorated1965@@YGXXZ @1965
?sync@?$basic_filebuf@DU?$char_traits@D@std@@@std@@MAEHXZ=?decorated1966@@YGXXZ @1966
?sync@?$basic_filebuf@GU?$char_traits@G@std@@@std@@MAEHXZ=?decorated1967@@YGXXZ @1967
?sync@?$basic_istream@DU?$char_traits@D@std@@@std@@QAEHXZ=?decorated1968@@YGXXZ @1968
?sync@?$basic_istream@GU?$char_traits@G@std@@@std@@QAEHXZ=?decorated1969@@YGXXZ @1969
?sync@?$basic_streambuf@DU?$char_traits@D@std@@@std@@MAEHXZ=?decorated1970@@YGXXZ @1970
?sync@?$basic_streambuf@GU?$char_traits@G@std@@@std@@MAEHXZ=?decorated1971@@YGXXZ @1971
?sync_with_stdio@ios_base@std@@SA_N_N@Z=?decorated1972@@YGXXZ @1972
?table@?$ctype@D@std@@IBEPBFXZ=?decorated1973@@YGXXZ @1973
?table_size@?$ctype@D@std@@2IB=?decorated1974@@YGXXZ @1974
?tellg@?$basic_istream@DU?$char_traits@D@std@@@std@@QAE?AV?$fpos@H@2@XZ=?decorated1975@@YGXXZ @1975
?tellg@?$basic_istream@GU?$char_traits@G@std@@@std@@QAE?AV?$fpos@H@2@XZ=?decorated1976@@YGXXZ @1976
?tellp@?$basic_ostream@DU?$char_traits@D@std@@@std@@QAE?AV?$fpos@H@2@XZ=?decorated1977@@YGXXZ @1977
?tellp@?$basic_ostream@GU?$char_traits@G@std@@@std@@QAE?AV?$fpos@H@2@XZ=?decorated1978@@YGXXZ @1978
?thousands_sep@?$_Mpunct@D@std@@QBEDXZ=?decorated1979@@YGXXZ @1979
?thousands_sep@?$_Mpunct@G@std@@QBEGXZ=?decorated1980@@YGXXZ @1980
?thousands_sep@?$numpunct@D@std@@QBEDXZ=?decorated1981@@YGXXZ @1981
?thousands_sep@?$numpunct@G@std@@QBEGXZ=?decorated1982@@YGXXZ @1982
?tie@?$basic_ios@DU?$char_traits@D@std@@@std@@QAEPAV?$basic_ostream@DU?$char_traits@D@std@@@2@PAV32@@Z=?decorated1983@@YGXXZ @1983
?tie@?$basic_ios@DU?$char_traits@D@std@@@std@@QBEPAV?$basic_ostream@DU?$char_traits@D@std@@@2@XZ=?decorated1984@@YGXXZ @1984
?tie@?$basic_ios@GU?$char_traits@G@std@@@std@@QAEPAV?$basic_ostream@GU?$char_traits@G@std@@@2@PAV32@@Z=?decorated1985@@YGXXZ @1985
?tie@?$basic_ios@GU?$char_traits@G@std@@@std@@QBEPAV?$basic_ostream@GU?$char_traits@G@std@@@2@XZ=?decorated1986@@YGXXZ @1986
?to_char_type@?$char_traits@D@std@@SADABH@Z=?decorated1987@@YGXXZ @1987
?to_char_type@?$char_traits@G@std@@SAGABG@Z=?decorated1988@@YGXXZ @1988
?to_int_type@?$char_traits@D@std@@SAHABD@Z=?decorated1989@@YGXXZ @1989
?to_int_type@?$char_traits@G@std@@SAGABG@Z=?decorated1990@@YGXXZ @1990
?tolower@?$ctype@D@std@@QBEDD@Z=?decorated1991@@YGXXZ @1991
?tolower@?$ctype@D@std@@QBEPBDPADPBD@Z=?decorated1992@@YGXXZ @1992
?tolower@?$ctype@G@std@@QBEGG@Z=?decorated1993@@YGXXZ @1993
?tolower@?$ctype@G@std@@QBEPBGPAGPBG@Z=?decorated1994@@YGXXZ @1994
?toupper@?$ctype@D@std@@QBEDD@Z=?decorated1995@@YGXXZ @1995
?toupper@?$ctype@D@std@@QBEPBDPADPBD@Z=?decorated1996@@YGXXZ @1996
?toupper@?$ctype@G@std@@QBEGG@Z=?decorated1997@@YGXXZ @1997
?toupper@?$ctype@G@std@@QBEPBGPAGPBG@Z=?decorated1998@@YGXXZ @1998
?transform@?$collate@D@std@@QBE?AV?$basic_string@DU?$char_traits@D@std@@V?$allocator@D@2@@2@PBD0@Z=?decorated1999@@YGXXZ @1999
?transform@?$collate@G@std@@QBE?AV?$basic_string@GU?$char_traits@G@std@@V?$allocator@G@2@@2@PBG0@Z=?decorated2000@@YGXXZ @2000
?truename@?$numpunct@D@std@@QBE?AV?$basic_string@DU?$char_traits@D@std@@V?$allocator@D@2@@2@XZ=?decorated2001@@YGXXZ @2001
?truename@?$numpunct@G@std@@QBE?AV?$basic_string@GU?$char_traits@G@std@@V?$allocator@G@2@@2@XZ=?decorated2002@@YGXXZ @2002
?uflow@?$basic_filebuf@DU?$char_traits@D@std@@@std@@MAEHXZ=?decorated2003@@YGXXZ @2003
?uflow@?$basic_filebuf@GU?$char_traits@G@std@@@std@@MAEGXZ=?decorated2004@@YGXXZ @2004
?uflow@?$basic_streambuf@DU?$char_traits@D@std@@@std@@MAEHXZ=?decorated2005@@YGXXZ @2005
?uflow@?$basic_streambuf@GU?$char_traits@G@std@@@std@@MAEGXZ=?decorated2006@@YGXXZ @2006
?uncaught_exception@std@@YA_NXZ=?decorated2007@@YGXXZ @2007
?underflow@?$basic_filebuf@DU?$char_traits@D@std@@@std@@MAEHXZ=?decorated2008@@YGXXZ @2008
?underflow@?$basic_filebuf@GU?$char_traits@G@std@@@std@@MAEGXZ=?decorated2009@@YGXXZ @2009
?underflow@?$basic_streambuf@DU?$char_traits@D@std@@@std@@MAEHXZ=?decorated2010@@YGXXZ @2010
?underflow@?$basic_streambuf@GU?$char_traits@G@std@@@std@@MAEGXZ=?decorated2011@@YGXXZ @2011
?underflow@?$basic_stringbuf@DU?$char_traits@D@std@@V?$allocator@D@2@@std@@MAEHXZ=?decorated2012@@YGXXZ @2012
?underflow@?$basic_stringbuf@GU?$char_traits@G@std@@V?$allocator@G@2@@std@@MAEGXZ=?decorated2013@@YGXXZ @2013
?underflow@strstreambuf@std@@MAEHXZ=?decorated2014@@YGXXZ @2014
?unget@?$basic_istream@DU?$char_traits@D@std@@@std@@QAEAAV12@XZ=?decorated2015@@YGXXZ @2015
?unget@?$basic_istream@GU?$char_traits@G@std@@@std@@QAEAAV12@XZ=?decorated2016@@YGXXZ @2016
?unsetf@ios_base@std@@QAEXH@Z=?decorated2017@@YGXXZ @2017
?wcerr@std@@3V?$basic_ostream@GU?$char_traits@G@std@@@1@A=?decorated2018@@YGXXZ @2018
?wcin@std@@3V?$basic_istream@GU?$char_traits@G@std@@@1@A=?decorated2019@@YGXXZ @2019
?wclog@std@@3V?$basic_ostream@GU?$char_traits@G@std@@@1@A=?decorated2020@@YGXXZ @2020
?wcout@std@@3V?$basic_ostream@GU?$char_traits@G@std@@@1@A=?decorated2021@@YGXXZ @2021
?what@logic_error@std@@UBEPBDXZ=?decorated2022@@YGXXZ @2022
?what@runtime_error@std@@UBEPBDXZ=?decorated2023@@YGXXZ @2023
?widen@?$basic_ios@DU?$char_traits@D@std@@@std@@QBEDD@Z=?decorated2024@@YGXXZ @2024
?widen@?$basic_ios@GU?$char_traits@G@std@@@std@@QBEGD@Z=?decorated2025@@YGXXZ @2025
?widen@?$ctype@D@std@@QBEDD@Z=?decorated2026@@YGXXZ @2026
?widen@?$ctype@D@std@@QBEPBDPBD0PAD@Z=?decorated2027@@YGXXZ @2027
?widen@?$ctype@G@std@@QBEGD@Z=?decorated2028@@YGXXZ @2028
?widen@?$ctype@G@std@@QBEPBDPBD0PAG@Z=?decorated2029@@YGXXZ @2029
?width@ios_base@std@@QAEHH@Z=?decorated2030@@YGXXZ @2030
?width@ios_base@std@@QBEHXZ=?decorated2031@@YGXXZ @2031
?write@?$basic_ostream@DU?$char_traits@D@std@@@std@@QAEAAV12@PBDH@Z=?decorated2032@@YGXXZ @2032
?write@?$basic_ostream@GU?$char_traits@G@std@@@std@@QAEAAV12@PBGH@Z=?decorated2033@@YGXXZ @2033
?ws@std@@YAAAV?$basic_istream@DU?$char_traits@D@std@@@1@AAV21@@Z=?decorated2034@@YGXXZ @2034
?ws@std@@YAAAV?$basic_istream@GU?$char_traits@G@std@@@1@AAV21@@Z=?decorated2035@@YGXXZ @2035
?xalloc@ios_base@std@@SAHXZ=?decorated2036@@YGXXZ @2036
?xsgetn@?$basic_streambuf@DU?$char_traits@D@std@@@std@@MAEHPADH@Z=?decorated2037@@YGXXZ @2037
?xsgetn@?$basic_streambuf@GU?$char_traits@G@std@@@std@@MAEHPAGH@Z=?decorated2038@@YGXXZ @2038
?xsputn@?$basic_streambuf@DU?$char_traits@D@std@@@std@@MAEHPBDH@Z=?decorated2039@@YGXXZ @2039
?xsputn@?$basic_streambuf@GU?$char_traits@G@std@@@std@@MAEHPBGH@Z=?decorated2040@@YGXXZ @2040
__Wcrtomb_lk=?decorated2094@@YGXXZ @2094
_Cosh=?decorated2041@@YGXXZ @2041
_Denorm=?decorated2042@@YGXXZ @2042
_Dnorm=?decorated2043@@YGXXZ @2043
_Dscale=?decorated2044@@YGXXZ @2044
_Dtest=?decorated2045@@YGXXZ @2045
_Eps=?decorated2046@@YGXXZ @2046
_Exp=?decorated2047@@YGXXZ @2047
_FCosh=?decorated2048@@YGXXZ @2048
_FDenorm=?decorated2049@@YGXXZ @2049
_FDnorm=?decorated2050@@YGXXZ @2050
_FDscale=?decorated2051@@YGXXZ @2051
_FDtest=?decorated2052@@YGXXZ @2052
_FEps=?decorated2053@@YGXXZ @2053
_FExp=?decorated2054@@YGXXZ @2054
_FInf=?decorated2055@@YGXXZ @2055
_FNan=?decorated2056@@YGXXZ @2056
_FRteps=?decorated2057@@YGXXZ @2057
_FSinh=?decorated2058@@YGXXZ @2058
_FSnan=?decorated2059@@YGXXZ @2059
_FXbig=?decorated2060@@YGXXZ @2060
_Getcoll=?decorated2061@@YGXXZ @2061
_Getctype=?decorated2062@@YGXXZ @2062
_Getcvt=?decorated2063@@YGXXZ @2063
_Hugeval=?decorated2064@@YGXXZ @2064
_Inf=?decorated2065@@YGXXZ @2065
_LCosh=?decorated2066@@YGXXZ @2066
_LDenorm=?decorated2067@@YGXXZ @2067
_LDscale=?decorated2068@@YGXXZ @2068
_LDtest=?decorated2069@@YGXXZ @2069
_LEps=?decorated2070@@YGXXZ @2070
_LExp=?decorated2071@@YGXXZ @2071
_LInf=?decorated2072@@YGXXZ @2072
_LNan=?decorated2073@@YGXXZ @2073
_LPoly=?decorated2074@@YGXXZ @2074
_LRteps=?decorated2075@@YGXXZ @2075
_LSinh=?decorated2076@@YGXXZ @2076
_LSnan=?decorated2077@@YGXXZ @2077
_LXbig=?decorated2078@@YGXXZ @2078
_Mbrtowc=?decorated2079@@YGXXZ @2079
_Nan=?decorated2080@@YGXXZ @2080
_Poly=?decorated2081@@YGXXZ @2081
_Rteps=?decorated2082@@YGXXZ @2082
_Sinh=?decorated2083@@YGXXZ @2083
_Snan=?decorated2084@@YGXXZ @2084
_Stod=?decorated2085@@YGXXZ @2085
_Stof=?decorated2086@@YGXXZ @2086
_Stold=?decorated2087@@YGXXZ @2087
_Strcoll=?decorated2088@@YGXXZ @2088
_Strxfrm=?decorated2089@@YGXXZ @2089
_Tolower=?decorated2090@@YGXXZ @2090
_Toupper=?decorated2091@@YGXXZ @2091
_Wcrtomb=?decorated2092@@YGXXZ @2092
_Xbig=?decorated2093@@YGXXZ @2093
btowc=?decorated2095@@YGXXZ @2095
mbrlen=?decorated2096@@YGXXZ @2096
mbrtowc=?decorated2097@@YGXXZ @2097
mbsrtowcs=?decorated2098@@YGXXZ @2098
towctrans=?decorated2099@@YGXXZ @2099
wcrtomb=?decorated2100@@YGXXZ @2100
wcsrtombs=?decorated2101@@YGXXZ @2101
wctob=?decorated2102@@YGXXZ @2102
wctrans=?decorated2103@@YGXXZ @2103
wctype=?decorated2104@@YGXXZ @2104
